
desk-time-tracker.elf:     file format elf32-littlearm

Sections:
Idx Name          Size      VMA       LMA       File off  Algn
  0 .isr_vector   000000c0  08000000  08000000  00001000  2**0
                  CONTENTS, ALLOC, LOAD, READONLY, DATA
  1 .text         00003918  080000c0  080000c0  000010c0  2**3
                  CONTENTS, ALLOC, LOAD, READONLY, CODE
  2 .rodata       000019f4  080039d8  080039d8  000049d8  2**2
                  CONTENTS, ALLOC, LOAD, READONLY, DATA
  3 .ARM.extab    00000000  080053cc  080053cc  00007098  2**0
                  CONTENTS, READONLY
  4 .ARM          00000000  080053cc  080053cc  00007098  2**0
                  CONTENTS, READONLY
  5 .preinit_array 00000000  080053cc  080053cc  00007098  2**0
                  CONTENTS, ALLOC, LOAD, DATA
  6 .init_array   00000004  080053cc  080053cc  000063cc  2**2
                  CONTENTS, ALLOC, LOAD, READONLY, DATA
  7 .fini_array   00000004  080053d0  080053d0  000063d0  2**2
                  CONTENTS, ALLOC, LOAD, READONLY, DATA
  8 .data         00000098  20000000  080053d4  00007000  2**2
                  CONTENTS, ALLOC, LOAD, CODE
  9 .bss          000007e4  20000098  0800546c  00007098  2**2
                  ALLOC
 10 ._user_heap_stack 00000604  2000087c  0800546c  0000787c  2**0
                  ALLOC
 11 .ARM.attributes 00000028  00000000  00000000  00007098  2**0
                  CONTENTS, READONLY
 12 .debug_info   0001a79a  00000000  00000000  000070c0  2**0
                  CONTENTS, READONLY, DEBUGGING, OCTETS
 13 .debug_abbrev 00003f4f  00000000  00000000  0002185a  2**0
                  CONTENTS, READONLY, DEBUGGING, OCTETS
 14 .debug_loclists 0000c952  00000000  00000000  000257a9  2**0
                  CONTENTS, READONLY, DEBUGGING, OCTETS
 15 .debug_aranges 00001160  00000000  00000000  00032100  2**3
                  CONTENTS, READONLY, DEBUGGING, OCTETS
 16 .debug_rnglists 000012b9  00000000  00000000  00033260  2**0
                  CONTENTS, READONLY, DEBUGGING, OCTETS
 17 .debug_macro  00016e50  00000000  00000000  00034519  2**0
                  CONTENTS, READONLY, DEBUGGING, OCTETS
 18 .debug_line   0001e129  00000000  00000000  0004b369  2**0
                  CONTENTS, READONLY, DEBUGGING, OCTETS
 19 .debug_str    0008ae5d  00000000  00000000  00069492  2**0
                  CONTENTS, READONLY, DEBUGGING, OCTETS
 20 .comment      00000043  00000000  00000000  000f42ef  2**0
                  CONTENTS, READONLY
 21 .debug_frame  0000342c  00000000  00000000  000f4334  2**2
                  CONTENTS, READONLY, DEBUGGING, OCTETS
 22 .debug_line_str 0000006b  00000000  00000000  000f7760  2**0
                  CONTENTS, READONLY, DEBUGGING, OCTETS

Disassembly of section .text:

080000c0 <__do_global_dtors_aux>:
 80000c0:	b510      	push	{r4, lr}
 80000c2:	4c06      	ldr	r4, [pc, #24]	@ (80000dc <__do_global_dtors_aux+0x1c>)
 80000c4:	7823      	ldrb	r3, [r4, #0]
 80000c6:	2b00      	cmp	r3, #0
 80000c8:	d107      	bne.n	80000da <__do_global_dtors_aux+0x1a>
 80000ca:	4b05      	ldr	r3, [pc, #20]	@ (80000e0 <__do_global_dtors_aux+0x20>)
 80000cc:	2b00      	cmp	r3, #0
 80000ce:	d002      	beq.n	80000d6 <__do_global_dtors_aux+0x16>
 80000d0:	4804      	ldr	r0, [pc, #16]	@ (80000e4 <__do_global_dtors_aux+0x24>)
 80000d2:	e000      	b.n	80000d6 <__do_global_dtors_aux+0x16>
 80000d4:	bf00      	nop
 80000d6:	2301      	movs	r3, #1
 80000d8:	7023      	strb	r3, [r4, #0]
 80000da:	bd10      	pop	{r4, pc}
 80000dc:	20000098 	.word	0x20000098
 80000e0:	00000000 	.word	0x00000000
 80000e4:	080039b0 	.word	0x080039b0

080000e8 <frame_dummy>:
 80000e8:	4b04      	ldr	r3, [pc, #16]	@ (80000fc <frame_dummy+0x14>)
 80000ea:	b510      	push	{r4, lr}
 80000ec:	2b00      	cmp	r3, #0
 80000ee:	d003      	beq.n	80000f8 <frame_dummy+0x10>
 80000f0:	4903      	ldr	r1, [pc, #12]	@ (8000100 <frame_dummy+0x18>)
 80000f2:	4804      	ldr	r0, [pc, #16]	@ (8000104 <frame_dummy+0x1c>)
 80000f4:	e000      	b.n	80000f8 <frame_dummy+0x10>
 80000f6:	bf00      	nop
 80000f8:	bd10      	pop	{r4, pc}
 80000fa:	46c0      	nop			@ (mov r8, r8)
 80000fc:	00000000 	.word	0x00000000
 8000100:	2000009c 	.word	0x2000009c
 8000104:	080039b0 	.word	0x080039b0

08000108 <__gnu_thumb1_case_uqi>:
 8000108:	b402      	push	{r1}
 800010a:	4671      	mov	r1, lr
 800010c:	0849      	lsrs	r1, r1, #1
 800010e:	0049      	lsls	r1, r1, #1
 8000110:	5c09      	ldrb	r1, [r1, r0]
 8000112:	0049      	lsls	r1, r1, #1
 8000114:	448e      	add	lr, r1
 8000116:	bc02      	pop	{r1}
 8000118:	4770      	bx	lr
 800011a:	46c0      	nop			@ (mov r8, r8)

0800011c <__gnu_thumb1_case_shi>:
 800011c:	b403      	push	{r0, r1}
 800011e:	4671      	mov	r1, lr
 8000120:	0849      	lsrs	r1, r1, #1
 8000122:	0040      	lsls	r0, r0, #1
 8000124:	0049      	lsls	r1, r1, #1
 8000126:	5e09      	ldrsh	r1, [r1, r0]
 8000128:	0049      	lsls	r1, r1, #1
 800012a:	448e      	add	lr, r1
 800012c:	bc03      	pop	{r0, r1}
 800012e:	4770      	bx	lr

08000130 <__udivsi3>:
 8000130:	2200      	movs	r2, #0
 8000132:	0843      	lsrs	r3, r0, #1
 8000134:	428b      	cmp	r3, r1
 8000136:	d374      	bcc.n	8000222 <__udivsi3+0xf2>
 8000138:	0903      	lsrs	r3, r0, #4
 800013a:	428b      	cmp	r3, r1
 800013c:	d35f      	bcc.n	80001fe <__udivsi3+0xce>
 800013e:	0a03      	lsrs	r3, r0, #8
 8000140:	428b      	cmp	r3, r1
 8000142:	d344      	bcc.n	80001ce <__udivsi3+0x9e>
 8000144:	0b03      	lsrs	r3, r0, #12
 8000146:	428b      	cmp	r3, r1
 8000148:	d328      	bcc.n	800019c <__udivsi3+0x6c>
 800014a:	0c03      	lsrs	r3, r0, #16
 800014c:	428b      	cmp	r3, r1
 800014e:	d30d      	bcc.n	800016c <__udivsi3+0x3c>
 8000150:	22ff      	movs	r2, #255	@ 0xff
 8000152:	0209      	lsls	r1, r1, #8
 8000154:	ba12      	rev	r2, r2
 8000156:	0c03      	lsrs	r3, r0, #16
 8000158:	428b      	cmp	r3, r1
 800015a:	d302      	bcc.n	8000162 <__udivsi3+0x32>
 800015c:	1212      	asrs	r2, r2, #8
 800015e:	0209      	lsls	r1, r1, #8
 8000160:	d065      	beq.n	800022e <__udivsi3+0xfe>
 8000162:	0b03      	lsrs	r3, r0, #12
 8000164:	428b      	cmp	r3, r1
 8000166:	d319      	bcc.n	800019c <__udivsi3+0x6c>
 8000168:	e000      	b.n	800016c <__udivsi3+0x3c>
 800016a:	0a09      	lsrs	r1, r1, #8
 800016c:	0bc3      	lsrs	r3, r0, #15
 800016e:	428b      	cmp	r3, r1
 8000170:	d301      	bcc.n	8000176 <__udivsi3+0x46>
 8000172:	03cb      	lsls	r3, r1, #15
 8000174:	1ac0      	subs	r0, r0, r3
 8000176:	4152      	adcs	r2, r2
 8000178:	0b83      	lsrs	r3, r0, #14
 800017a:	428b      	cmp	r3, r1
 800017c:	d301      	bcc.n	8000182 <__udivsi3+0x52>
 800017e:	038b      	lsls	r3, r1, #14
 8000180:	1ac0      	subs	r0, r0, r3
 8000182:	4152      	adcs	r2, r2
 8000184:	0b43      	lsrs	r3, r0, #13
 8000186:	428b      	cmp	r3, r1
 8000188:	d301      	bcc.n	800018e <__udivsi3+0x5e>
 800018a:	034b      	lsls	r3, r1, #13
 800018c:	1ac0      	subs	r0, r0, r3
 800018e:	4152      	adcs	r2, r2
 8000190:	0b03      	lsrs	r3, r0, #12
 8000192:	428b      	cmp	r3, r1
 8000194:	d301      	bcc.n	800019a <__udivsi3+0x6a>
 8000196:	030b      	lsls	r3, r1, #12
 8000198:	1ac0      	subs	r0, r0, r3
 800019a:	4152      	adcs	r2, r2
 800019c:	0ac3      	lsrs	r3, r0, #11
 800019e:	428b      	cmp	r3, r1
 80001a0:	d301      	bcc.n	80001a6 <__udivsi3+0x76>
 80001a2:	02cb      	lsls	r3, r1, #11
 80001a4:	1ac0      	subs	r0, r0, r3
 80001a6:	4152      	adcs	r2, r2
 80001a8:	0a83      	lsrs	r3, r0, #10
 80001aa:	428b      	cmp	r3, r1
 80001ac:	d301      	bcc.n	80001b2 <__udivsi3+0x82>
 80001ae:	028b      	lsls	r3, r1, #10
 80001b0:	1ac0      	subs	r0, r0, r3
 80001b2:	4152      	adcs	r2, r2
 80001b4:	0a43      	lsrs	r3, r0, #9
 80001b6:	428b      	cmp	r3, r1
 80001b8:	d301      	bcc.n	80001be <__udivsi3+0x8e>
 80001ba:	024b      	lsls	r3, r1, #9
 80001bc:	1ac0      	subs	r0, r0, r3
 80001be:	4152      	adcs	r2, r2
 80001c0:	0a03      	lsrs	r3, r0, #8
 80001c2:	428b      	cmp	r3, r1
 80001c4:	d301      	bcc.n	80001ca <__udivsi3+0x9a>
 80001c6:	020b      	lsls	r3, r1, #8
 80001c8:	1ac0      	subs	r0, r0, r3
 80001ca:	4152      	adcs	r2, r2
 80001cc:	d2cd      	bcs.n	800016a <__udivsi3+0x3a>
 80001ce:	09c3      	lsrs	r3, r0, #7
 80001d0:	428b      	cmp	r3, r1
 80001d2:	d301      	bcc.n	80001d8 <__udivsi3+0xa8>
 80001d4:	01cb      	lsls	r3, r1, #7
 80001d6:	1ac0      	subs	r0, r0, r3
 80001d8:	4152      	adcs	r2, r2
 80001da:	0983      	lsrs	r3, r0, #6
 80001dc:	428b      	cmp	r3, r1
 80001de:	d301      	bcc.n	80001e4 <__udivsi3+0xb4>
 80001e0:	018b      	lsls	r3, r1, #6
 80001e2:	1ac0      	subs	r0, r0, r3
 80001e4:	4152      	adcs	r2, r2
 80001e6:	0943      	lsrs	r3, r0, #5
 80001e8:	428b      	cmp	r3, r1
 80001ea:	d301      	bcc.n	80001f0 <__udivsi3+0xc0>
 80001ec:	014b      	lsls	r3, r1, #5
 80001ee:	1ac0      	subs	r0, r0, r3
 80001f0:	4152      	adcs	r2, r2
 80001f2:	0903      	lsrs	r3, r0, #4
 80001f4:	428b      	cmp	r3, r1
 80001f6:	d301      	bcc.n	80001fc <__udivsi3+0xcc>
 80001f8:	010b      	lsls	r3, r1, #4
 80001fa:	1ac0      	subs	r0, r0, r3
 80001fc:	4152      	adcs	r2, r2
 80001fe:	08c3      	lsrs	r3, r0, #3
 8000200:	428b      	cmp	r3, r1
 8000202:	d301      	bcc.n	8000208 <__udivsi3+0xd8>
 8000204:	00cb      	lsls	r3, r1, #3
 8000206:	1ac0      	subs	r0, r0, r3
 8000208:	4152      	adcs	r2, r2
 800020a:	0883      	lsrs	r3, r0, #2
 800020c:	428b      	cmp	r3, r1
 800020e:	d301      	bcc.n	8000214 <__udivsi3+0xe4>
 8000210:	008b      	lsls	r3, r1, #2
 8000212:	1ac0      	subs	r0, r0, r3
 8000214:	4152      	adcs	r2, r2
 8000216:	0843      	lsrs	r3, r0, #1
 8000218:	428b      	cmp	r3, r1
 800021a:	d301      	bcc.n	8000220 <__udivsi3+0xf0>
 800021c:	004b      	lsls	r3, r1, #1
 800021e:	1ac0      	subs	r0, r0, r3
 8000220:	4152      	adcs	r2, r2
 8000222:	1a41      	subs	r1, r0, r1
 8000224:	d200      	bcs.n	8000228 <__udivsi3+0xf8>
 8000226:	4601      	mov	r1, r0
 8000228:	4152      	adcs	r2, r2
 800022a:	4610      	mov	r0, r2
 800022c:	4770      	bx	lr
 800022e:	e7ff      	b.n	8000230 <__udivsi3+0x100>
 8000230:	b501      	push	{r0, lr}
 8000232:	2000      	movs	r0, #0
 8000234:	f000 f8f0 	bl	8000418 <__aeabi_idiv0>
 8000238:	bd02      	pop	{r1, pc}
 800023a:	46c0      	nop			@ (mov r8, r8)

0800023c <__aeabi_uidivmod>:
 800023c:	2900      	cmp	r1, #0
 800023e:	d0f7      	beq.n	8000230 <__udivsi3+0x100>
 8000240:	e776      	b.n	8000130 <__udivsi3>
 8000242:	4770      	bx	lr

08000244 <__divsi3>:
 8000244:	4603      	mov	r3, r0
 8000246:	430b      	orrs	r3, r1
 8000248:	d47f      	bmi.n	800034a <__divsi3+0x106>
 800024a:	2200      	movs	r2, #0
 800024c:	0843      	lsrs	r3, r0, #1
 800024e:	428b      	cmp	r3, r1
 8000250:	d374      	bcc.n	800033c <__divsi3+0xf8>
 8000252:	0903      	lsrs	r3, r0, #4
 8000254:	428b      	cmp	r3, r1
 8000256:	d35f      	bcc.n	8000318 <__divsi3+0xd4>
 8000258:	0a03      	lsrs	r3, r0, #8
 800025a:	428b      	cmp	r3, r1
 800025c:	d344      	bcc.n	80002e8 <__divsi3+0xa4>
 800025e:	0b03      	lsrs	r3, r0, #12
 8000260:	428b      	cmp	r3, r1
 8000262:	d328      	bcc.n	80002b6 <__divsi3+0x72>
 8000264:	0c03      	lsrs	r3, r0, #16
 8000266:	428b      	cmp	r3, r1
 8000268:	d30d      	bcc.n	8000286 <__divsi3+0x42>
 800026a:	22ff      	movs	r2, #255	@ 0xff
 800026c:	0209      	lsls	r1, r1, #8
 800026e:	ba12      	rev	r2, r2
 8000270:	0c03      	lsrs	r3, r0, #16
 8000272:	428b      	cmp	r3, r1
 8000274:	d302      	bcc.n	800027c <__divsi3+0x38>
 8000276:	1212      	asrs	r2, r2, #8
 8000278:	0209      	lsls	r1, r1, #8
 800027a:	d065      	beq.n	8000348 <__divsi3+0x104>
 800027c:	0b03      	lsrs	r3, r0, #12
 800027e:	428b      	cmp	r3, r1
 8000280:	d319      	bcc.n	80002b6 <__divsi3+0x72>
 8000282:	e000      	b.n	8000286 <__divsi3+0x42>
 8000284:	0a09      	lsrs	r1, r1, #8
 8000286:	0bc3      	lsrs	r3, r0, #15
 8000288:	428b      	cmp	r3, r1
 800028a:	d301      	bcc.n	8000290 <__divsi3+0x4c>
 800028c:	03cb      	lsls	r3, r1, #15
 800028e:	1ac0      	subs	r0, r0, r3
 8000290:	4152      	adcs	r2, r2
 8000292:	0b83      	lsrs	r3, r0, #14
 8000294:	428b      	cmp	r3, r1
 8000296:	d301      	bcc.n	800029c <__divsi3+0x58>
 8000298:	038b      	lsls	r3, r1, #14
 800029a:	1ac0      	subs	r0, r0, r3
 800029c:	4152      	adcs	r2, r2
 800029e:	0b43      	lsrs	r3, r0, #13
 80002a0:	428b      	cmp	r3, r1
 80002a2:	d301      	bcc.n	80002a8 <__divsi3+0x64>
 80002a4:	034b      	lsls	r3, r1, #13
 80002a6:	1ac0      	subs	r0, r0, r3
 80002a8:	4152      	adcs	r2, r2
 80002aa:	0b03      	lsrs	r3, r0, #12
 80002ac:	428b      	cmp	r3, r1
 80002ae:	d301      	bcc.n	80002b4 <__divsi3+0x70>
 80002b0:	030b      	lsls	r3, r1, #12
 80002b2:	1ac0      	subs	r0, r0, r3
 80002b4:	4152      	adcs	r2, r2
 80002b6:	0ac3      	lsrs	r3, r0, #11
 80002b8:	428b      	cmp	r3, r1
 80002ba:	d301      	bcc.n	80002c0 <__divsi3+0x7c>
 80002bc:	02cb      	lsls	r3, r1, #11
 80002be:	1ac0      	subs	r0, r0, r3
 80002c0:	4152      	adcs	r2, r2
 80002c2:	0a83      	lsrs	r3, r0, #10
 80002c4:	428b      	cmp	r3, r1
 80002c6:	d301      	bcc.n	80002cc <__divsi3+0x88>
 80002c8:	028b      	lsls	r3, r1, #10
 80002ca:	1ac0      	subs	r0, r0, r3
 80002cc:	4152      	adcs	r2, r2
 80002ce:	0a43      	lsrs	r3, r0, #9
 80002d0:	428b      	cmp	r3, r1
 80002d2:	d301      	bcc.n	80002d8 <__divsi3+0x94>
 80002d4:	024b      	lsls	r3, r1, #9
 80002d6:	1ac0      	subs	r0, r0, r3
 80002d8:	4152      	adcs	r2, r2
 80002da:	0a03      	lsrs	r3, r0, #8
 80002dc:	428b      	cmp	r3, r1
 80002de:	d301      	bcc.n	80002e4 <__divsi3+0xa0>
 80002e0:	020b      	lsls	r3, r1, #8
 80002e2:	1ac0      	subs	r0, r0, r3
 80002e4:	4152      	adcs	r2, r2
 80002e6:	d2cd      	bcs.n	8000284 <__divsi3+0x40>
 80002e8:	09c3      	lsrs	r3, r0, #7
 80002ea:	428b      	cmp	r3, r1
 80002ec:	d301      	bcc.n	80002f2 <__divsi3+0xae>
 80002ee:	01cb      	lsls	r3, r1, #7
 80002f0:	1ac0      	subs	r0, r0, r3
 80002f2:	4152      	adcs	r2, r2
 80002f4:	0983      	lsrs	r3, r0, #6
 80002f6:	428b      	cmp	r3, r1
 80002f8:	d301      	bcc.n	80002fe <__divsi3+0xba>
 80002fa:	018b      	lsls	r3, r1, #6
 80002fc:	1ac0      	subs	r0, r0, r3
 80002fe:	4152      	adcs	r2, r2
 8000300:	0943      	lsrs	r3, r0, #5
 8000302:	428b      	cmp	r3, r1
 8000304:	d301      	bcc.n	800030a <__divsi3+0xc6>
 8000306:	014b      	lsls	r3, r1, #5
 8000308:	1ac0      	subs	r0, r0, r3
 800030a:	4152      	adcs	r2, r2
 800030c:	0903      	lsrs	r3, r0, #4
 800030e:	428b      	cmp	r3, r1
 8000310:	d301      	bcc.n	8000316 <__divsi3+0xd2>
 8000312:	010b      	lsls	r3, r1, #4
 8000314:	1ac0      	subs	r0, r0, r3
 8000316:	4152      	adcs	r2, r2
 8000318:	08c3      	lsrs	r3, r0, #3
 800031a:	428b      	cmp	r3, r1
 800031c:	d301      	bcc.n	8000322 <__divsi3+0xde>
 800031e:	00cb      	lsls	r3, r1, #3
 8000320:	1ac0      	subs	r0, r0, r3
 8000322:	4152      	adcs	r2, r2
 8000324:	0883      	lsrs	r3, r0, #2
 8000326:	428b      	cmp	r3, r1
 8000328:	d301      	bcc.n	800032e <__divsi3+0xea>
 800032a:	008b      	lsls	r3, r1, #2
 800032c:	1ac0      	subs	r0, r0, r3
 800032e:	4152      	adcs	r2, r2
 8000330:	0843      	lsrs	r3, r0, #1
 8000332:	428b      	cmp	r3, r1
 8000334:	d301      	bcc.n	800033a <__divsi3+0xf6>
 8000336:	004b      	lsls	r3, r1, #1
 8000338:	1ac0      	subs	r0, r0, r3
 800033a:	4152      	adcs	r2, r2
 800033c:	1a41      	subs	r1, r0, r1
 800033e:	d200      	bcs.n	8000342 <__divsi3+0xfe>
 8000340:	4601      	mov	r1, r0
 8000342:	4152      	adcs	r2, r2
 8000344:	4610      	mov	r0, r2
 8000346:	4770      	bx	lr
 8000348:	e05d      	b.n	8000406 <__divsi3+0x1c2>
 800034a:	0fca      	lsrs	r2, r1, #31
 800034c:	d000      	beq.n	8000350 <__divsi3+0x10c>
 800034e:	4249      	negs	r1, r1
 8000350:	1003      	asrs	r3, r0, #32
 8000352:	d300      	bcc.n	8000356 <__divsi3+0x112>
 8000354:	4240      	negs	r0, r0
 8000356:	4053      	eors	r3, r2
 8000358:	2200      	movs	r2, #0
 800035a:	469c      	mov	ip, r3
 800035c:	0903      	lsrs	r3, r0, #4
 800035e:	428b      	cmp	r3, r1
 8000360:	d32d      	bcc.n	80003be <__divsi3+0x17a>
 8000362:	0a03      	lsrs	r3, r0, #8
 8000364:	428b      	cmp	r3, r1
 8000366:	d312      	bcc.n	800038e <__divsi3+0x14a>
 8000368:	22fc      	movs	r2, #252	@ 0xfc
 800036a:	0189      	lsls	r1, r1, #6
 800036c:	ba12      	rev	r2, r2
 800036e:	0a03      	lsrs	r3, r0, #8
 8000370:	428b      	cmp	r3, r1
 8000372:	d30c      	bcc.n	800038e <__divsi3+0x14a>
 8000374:	0189      	lsls	r1, r1, #6
 8000376:	1192      	asrs	r2, r2, #6
 8000378:	428b      	cmp	r3, r1
 800037a:	d308      	bcc.n	800038e <__divsi3+0x14a>
 800037c:	0189      	lsls	r1, r1, #6
 800037e:	1192      	asrs	r2, r2, #6
 8000380:	428b      	cmp	r3, r1
 8000382:	d304      	bcc.n	800038e <__divsi3+0x14a>
 8000384:	0189      	lsls	r1, r1, #6
 8000386:	d03a      	beq.n	80003fe <__divsi3+0x1ba>
 8000388:	1192      	asrs	r2, r2, #6
 800038a:	e000      	b.n	800038e <__divsi3+0x14a>
 800038c:	0989      	lsrs	r1, r1, #6
 800038e:	09c3      	lsrs	r3, r0, #7
 8000390:	428b      	cmp	r3, r1
 8000392:	d301      	bcc.n	8000398 <__divsi3+0x154>
 8000394:	01cb      	lsls	r3, r1, #7
 8000396:	1ac0      	subs	r0, r0, r3
 8000398:	4152      	adcs	r2, r2
 800039a:	0983      	lsrs	r3, r0, #6
 800039c:	428b      	cmp	r3, r1
 800039e:	d301      	bcc.n	80003a4 <__divsi3+0x160>
 80003a0:	018b      	lsls	r3, r1, #6
 80003a2:	1ac0      	subs	r0, r0, r3
 80003a4:	4152      	adcs	r2, r2
 80003a6:	0943      	lsrs	r3, r0, #5
 80003a8:	428b      	cmp	r3, r1
 80003aa:	d301      	bcc.n	80003b0 <__divsi3+0x16c>
 80003ac:	014b      	lsls	r3, r1, #5
 80003ae:	1ac0      	subs	r0, r0, r3
 80003b0:	4152      	adcs	r2, r2
 80003b2:	0903      	lsrs	r3, r0, #4
 80003b4:	428b      	cmp	r3, r1
 80003b6:	d301      	bcc.n	80003bc <__divsi3+0x178>
 80003b8:	010b      	lsls	r3, r1, #4
 80003ba:	1ac0      	subs	r0, r0, r3
 80003bc:	4152      	adcs	r2, r2
 80003be:	08c3      	lsrs	r3, r0, #3
 80003c0:	428b      	cmp	r3, r1
 80003c2:	d301      	bcc.n	80003c8 <__divsi3+0x184>
 80003c4:	00cb      	lsls	r3, r1, #3
 80003c6:	1ac0      	subs	r0, r0, r3
 80003c8:	4152      	adcs	r2, r2
 80003ca:	0883      	lsrs	r3, r0, #2
 80003cc:	428b      	cmp	r3, r1
 80003ce:	d301      	bcc.n	80003d4 <__divsi3+0x190>
 80003d0:	008b      	lsls	r3, r1, #2
 80003d2:	1ac0      	subs	r0, r0, r3
 80003d4:	4152      	adcs	r2, r2
 80003d6:	d2d9      	bcs.n	800038c <__divsi3+0x148>
 80003d8:	0843      	lsrs	r3, r0, #1
 80003da:	428b      	cmp	r3, r1
 80003dc:	d301      	bcc.n	80003e2 <__divsi3+0x19e>
 80003de:	004b      	lsls	r3, r1, #1
 80003e0:	1ac0      	subs	r0, r0, r3
 80003e2:	4152      	adcs	r2, r2
 80003e4:	1a41      	subs	r1, r0, r1
 80003e6:	d200      	bcs.n	80003ea <__divsi3+0x1a6>
 80003e8:	4601      	mov	r1, r0
 80003ea:	4663      	mov	r3, ip
 80003ec:	4152      	adcs	r2, r2
 80003ee:	105b      	asrs	r3, r3, #1
 80003f0:	4610      	mov	r0, r2
 80003f2:	d301      	bcc.n	80003f8 <__divsi3+0x1b4>
 80003f4:	4240      	negs	r0, r0
 80003f6:	2b00      	cmp	r3, #0
 80003f8:	d500      	bpl.n	80003fc <__divsi3+0x1b8>
 80003fa:	4249      	negs	r1, r1
 80003fc:	4770      	bx	lr
 80003fe:	4663      	mov	r3, ip
 8000400:	105b      	asrs	r3, r3, #1
 8000402:	d300      	bcc.n	8000406 <__divsi3+0x1c2>
 8000404:	4240      	negs	r0, r0
 8000406:	b501      	push	{r0, lr}
 8000408:	2000      	movs	r0, #0
 800040a:	f000 f805 	bl	8000418 <__aeabi_idiv0>
 800040e:	bd02      	pop	{r1, pc}

08000410 <__aeabi_idivmod>:
 8000410:	2900      	cmp	r1, #0
 8000412:	d0f8      	beq.n	8000406 <__divsi3+0x1c2>
 8000414:	e716      	b.n	8000244 <__divsi3>
 8000416:	4770      	bx	lr

08000418 <__aeabi_idiv0>:
 8000418:	4770      	bx	lr
 800041a:	46c0      	nop			@ (mov r8, r8)

0800041c <Display_TimeScreen>:

/* Private user code ---------------------------------------------------------*/
/* USER CODE BEGIN 0 */

//Generated By Claude.AI
void Display_TimeScreen(char *current_time, char *avg_time, char *buz_time) {
 800041c:	b5f7      	push	{r0, r1, r2, r4, r5, r6, r7, lr}
    ssd1306_Fill(White);

    // -- Large current time -----------------------------------
    // Font_16x26: "HH:MM" = 5 chars × 16px = 80px, ends at x=82
    ssd1306_SetCursor(2, 19);
    ssd1306_WriteString(current_time, Font_16x26, Black);
 800041e:	2500      	movs	r5, #0
void Display_TimeScreen(char *current_time, char *avg_time, char *buz_time) {
 8000420:	0004      	movs	r4, r0
 8000422:	000f      	movs	r7, r1
 8000424:	0016      	movs	r6, r2
    ssd1306_Fill(White);
 8000426:	2001      	movs	r0, #1
 8000428:	f000 fd9e 	bl	8000f68 <ssd1306_Fill>
    ssd1306_SetCursor(2, 19);
 800042c:	2113      	movs	r1, #19
 800042e:	2002      	movs	r0, #2
 8000430:	f000 fe4a 	bl	80010c8 <ssd1306_SetCursor>
    ssd1306_WriteString(current_time, Font_16x26, Black);
 8000434:	4b20      	ldr	r3, [pc, #128]	@ (80004b8 <Display_TimeScreen+0x9c>)
 8000436:	9500      	str	r5, [sp, #0]
 8000438:	cb0e      	ldmia	r3, {r1, r2, r3}
 800043a:	0020      	movs	r0, r4
 800043c:	f000 fe2a 	bl	8001094 <ssd1306_WriteString>

    // -- 2px vertical separator bar ---------------------------
    // Sits just after the main time (x=82), full screen height
    ssd1306_FillRectangle(84, 0, 85, 63, Black);
 8000440:	0029      	movs	r1, r5
 8000442:	233f      	movs	r3, #63	@ 0x3f
 8000444:	2255      	movs	r2, #85	@ 0x55
 8000446:	9500      	str	r5, [sp, #0]
 8000448:	2054      	movs	r0, #84	@ 0x54
 800044a:	f000 fe43 	bl	80010d4 <ssd1306_FillRectangle>

    // -- AVG label + value (top-right) ------------------------
    ssd1306_SetCursor(89, 4);
 800044e:	2104      	movs	r1, #4
 8000450:	2059      	movs	r0, #89	@ 0x59
 8000452:	f000 fe39 	bl	80010c8 <ssd1306_SetCursor>
    ssd1306_WriteString("AVG", Font_6x8, Black);
 8000456:	4c19      	ldr	r4, [pc, #100]	@ (80004bc <Display_TimeScreen+0xa0>)
 8000458:	9500      	str	r5, [sp, #0]
 800045a:	6862      	ldr	r2, [r4, #4]
 800045c:	68a3      	ldr	r3, [r4, #8]
 800045e:	6821      	ldr	r1, [r4, #0]
 8000460:	4817      	ldr	r0, [pc, #92]	@ (80004c0 <Display_TimeScreen+0xa4>)
 8000462:	f000 fe17 	bl	8001094 <ssd1306_WriteString>
    ssd1306_SetCursor(89, 14);
 8000466:	210e      	movs	r1, #14
 8000468:	2059      	movs	r0, #89	@ 0x59
 800046a:	f000 fe2d 	bl	80010c8 <ssd1306_SetCursor>
    ssd1306_WriteString(avg_time, Font_6x8, Black);
 800046e:	6862      	ldr	r2, [r4, #4]
 8000470:	68a3      	ldr	r3, [r4, #8]
 8000472:	0038      	movs	r0, r7
 8000474:	6821      	ldr	r1, [r4, #0]
 8000476:	9500      	str	r5, [sp, #0]
 8000478:	f000 fe0c 	bl	8001094 <ssd1306_WriteString>

    // -- BUZ label + value (bottom-right) ---------------------
    ssd1306_SetCursor(89, 34);
 800047c:	2122      	movs	r1, #34	@ 0x22
 800047e:	2059      	movs	r0, #89	@ 0x59
 8000480:	f000 fe22 	bl	80010c8 <ssd1306_SetCursor>
    ssd1306_WriteString("BUZ", Font_6x8, Black);
 8000484:	6821      	ldr	r1, [r4, #0]
 8000486:	6862      	ldr	r2, [r4, #4]
 8000488:	68a3      	ldr	r3, [r4, #8]
 800048a:	9500      	str	r5, [sp, #0]
 800048c:	480d      	ldr	r0, [pc, #52]	@ (80004c4 <Display_TimeScreen+0xa8>)
 800048e:	f000 fe01 	bl	8001094 <ssd1306_WriteString>
    ssd1306_SetCursor(89, 44);
 8000492:	212c      	movs	r1, #44	@ 0x2c
 8000494:	2059      	movs	r0, #89	@ 0x59
 8000496:	f000 fe17 	bl	80010c8 <ssd1306_SetCursor>
    ssd1306_WriteString(buz_time, Font_6x8, Black);
 800049a:	cc0e      	ldmia	r4!, {r1, r2, r3}
 800049c:	0030      	movs	r0, r6
 800049e:	9500      	str	r5, [sp, #0]
 80004a0:	f000 fdf8 	bl	8001094 <ssd1306_WriteString>

    // -- Vertical bar on right edge ---------------------------
    ssd1306_FillRectangle(124, 0, 127, 63, Black);
 80004a4:	0029      	movs	r1, r5
 80004a6:	233f      	movs	r3, #63	@ 0x3f
 80004a8:	227f      	movs	r2, #127	@ 0x7f
 80004aa:	207c      	movs	r0, #124	@ 0x7c
 80004ac:	9500      	str	r5, [sp, #0]
 80004ae:	f000 fe11 	bl	80010d4 <ssd1306_FillRectangle>

    ssd1306_UpdateScreen();
 80004b2:	f000 fd67 	bl	8000f84 <ssd1306_UpdateScreen>
}
 80004b6:	bdf7      	pop	{r0, r1, r2, r4, r5, r6, r7, pc}
 80004b8:	08003a78 	.word	0x08003a78
 80004bc:	08003a84 	.word	0x08003a84
 80004c0:	080039e4 	.word	0x080039e4
 80004c4:	080039e8 	.word	0x080039e8

080004c8 <Display_SettingsScreen>:

//Generated By Claude.AI
void Display_SettingsScreen(uint8_t hours, uint8_t minutes, uint8_t selected_pos) {
 80004c8:	b5f0      	push	{r4, r5, r6, r7, lr}
 80004ca:	000d      	movs	r5, r1
    char hours_str[4];
    char mins_str[4];
    sprintf(hours_str, "%02d", hours);
 80004cc:	4c2a      	ldr	r4, [pc, #168]	@ (8000578 <Display_SettingsScreen+0xb0>)
void Display_SettingsScreen(uint8_t hours, uint8_t minutes, uint8_t selected_pos) {
 80004ce:	b085      	sub	sp, #20
    sprintf(hours_str, "%02d", hours);
 80004d0:	0021      	movs	r1, r4
void Display_SettingsScreen(uint8_t hours, uint8_t minutes, uint8_t selected_pos) {
 80004d2:	0016      	movs	r6, r2
    sprintf(hours_str, "%02d", hours);
 80004d4:	0002      	movs	r2, r0
 80004d6:	a802      	add	r0, sp, #8
 80004d8:	f002 fdc4 	bl	8003064 <siprintf>
    sprintf(mins_str,  "%02d", minutes);
 80004dc:	002a      	movs	r2, r5
 80004de:	0021      	movs	r1, r4
 80004e0:	a803      	add	r0, sp, #12
 80004e2:	f002 fdbf 	bl	8003064 <siprintf>

    // Blink toggle: flips every 500ms
    uint8_t blink_on = (HAL_GetTick() % 1000) < 500;
 80004e6:	f000 fee5 	bl	80012b4 <HAL_GetTick>
 80004ea:	21fa      	movs	r1, #250	@ 0xfa
 80004ec:	0089      	lsls	r1, r1, #2
 80004ee:	f7ff fea5 	bl	800023c <__aeabi_uidivmod>
    ssd1306_Fill(White);

    // -- "BUZZ" label centered top ----------------------------
    // Font_6x8: "BUZZ" = 4 chars x 6px = 24px, centered at x=52
    ssd1306_SetCursor(52, 2);
    ssd1306_WriteString("BUZZ", Font_6x8, Black);
 80004f2:	2700      	movs	r7, #0
    ssd1306_Fill(White);
 80004f4:	2001      	movs	r0, #1
    uint8_t blink_on = (HAL_GetTick() % 1000) < 500;
 80004f6:	000d      	movs	r5, r1
    ssd1306_Fill(White);
 80004f8:	f000 fd36 	bl	8000f68 <ssd1306_Fill>
    ssd1306_SetCursor(52, 2);
 80004fc:	2102      	movs	r1, #2
 80004fe:	2034      	movs	r0, #52	@ 0x34
 8000500:	f000 fde2 	bl	80010c8 <ssd1306_SetCursor>
    ssd1306_WriteString("BUZZ", Font_6x8, Black);
 8000504:	4b1d      	ldr	r3, [pc, #116]	@ (800057c <Display_SettingsScreen+0xb4>)
 8000506:	481e      	ldr	r0, [pc, #120]	@ (8000580 <Display_SettingsScreen+0xb8>)
 8000508:	cb0e      	ldmia	r3, {r1, r2, r3}
 800050a:	9700      	str	r7, [sp, #0]
 800050c:	f000 fdc2 	bl	8001094 <ssd1306_WriteString>
    // Center on 128px screen: (128 - 80) / 2 = 24
    // So: HH @ x=24, ':' @ x=56, MM @ x=72
    // Vertically centered: (64 - 26) / 2 = 19

    // -- Colon always visible ---------------------------------
    ssd1306_SetCursor(56, 19);
 8000510:	2113      	movs	r1, #19
 8000512:	2038      	movs	r0, #56	@ 0x38
 8000514:	f000 fdd8 	bl	80010c8 <ssd1306_SetCursor>
    ssd1306_WriteString(":", Font_16x26, Black);
 8000518:	4c1a      	ldr	r4, [pc, #104]	@ (8000584 <Display_SettingsScreen+0xbc>)
 800051a:	481b      	ldr	r0, [pc, #108]	@ (8000588 <Display_SettingsScreen+0xc0>)
 800051c:	6821      	ldr	r1, [r4, #0]
 800051e:	6862      	ldr	r2, [r4, #4]
 8000520:	68a3      	ldr	r3, [r4, #8]
 8000522:	9700      	str	r7, [sp, #0]
 8000524:	f000 fdb6 	bl	8001094 <ssd1306_WriteString>

    // -- Hours: flash if selected -----------------------------
    if (selected_pos != 1 || blink_on) {
 8000528:	2e01      	cmp	r6, #1
 800052a:	d111      	bne.n	8000550 <Display_SettingsScreen+0x88>
 800052c:	23fa      	movs	r3, #250	@ 0xfa
 800052e:	005b      	lsls	r3, r3, #1
 8000530:	429d      	cmp	r5, r3
 8000532:	d30d      	bcc.n	8000550 <Display_SettingsScreen+0x88>
        ssd1306_WriteString(hours_str, Font_16x26, Black);
    }

    // -- Minutes: flash if selected ---------------------------
    if (selected_pos != 0 || blink_on) {
        ssd1306_SetCursor(72, 19);
 8000534:	2113      	movs	r1, #19
 8000536:	2048      	movs	r0, #72	@ 0x48
 8000538:	f000 fdc6 	bl	80010c8 <ssd1306_SetCursor>
        ssd1306_WriteString(mins_str, Font_16x26, Black);
 800053c:	2300      	movs	r3, #0
 800053e:	a803      	add	r0, sp, #12
 8000540:	9300      	str	r3, [sp, #0]
 8000542:	cc0e      	ldmia	r4!, {r1, r2, r3}
 8000544:	f000 fda6 	bl	8001094 <ssd1306_WriteString>
    }

    ssd1306_UpdateScreen();
 8000548:	f000 fd1c 	bl	8000f84 <ssd1306_UpdateScreen>
}
 800054c:	b005      	add	sp, #20
 800054e:	bdf0      	pop	{r4, r5, r6, r7, pc}
        ssd1306_SetCursor(24, 19);
 8000550:	2113      	movs	r1, #19
 8000552:	2018      	movs	r0, #24
 8000554:	f000 fdb8 	bl	80010c8 <ssd1306_SetCursor>
        ssd1306_WriteString(hours_str, Font_16x26, Black);
 8000558:	2300      	movs	r3, #0
 800055a:	6821      	ldr	r1, [r4, #0]
 800055c:	9300      	str	r3, [sp, #0]
 800055e:	6862      	ldr	r2, [r4, #4]
 8000560:	68a3      	ldr	r3, [r4, #8]
 8000562:	a802      	add	r0, sp, #8
 8000564:	f000 fd96 	bl	8001094 <ssd1306_WriteString>
    uint8_t blink_on = (HAL_GetTick() % 1000) < 500;
 8000568:	23fa      	movs	r3, #250	@ 0xfa
 800056a:	005b      	lsls	r3, r3, #1
 800056c:	429d      	cmp	r5, r3
 800056e:	41ad      	sbcs	r5, r5
 8000570:	426d      	negs	r5, r5
    if (selected_pos != 0 || blink_on) {
 8000572:	432e      	orrs	r6, r5
 8000574:	d0e8      	beq.n	8000548 <Display_SettingsScreen+0x80>
 8000576:	e7dd      	b.n	8000534 <Display_SettingsScreen+0x6c>
 8000578:	080039fe 	.word	0x080039fe
 800057c:	08003a84 	.word	0x08003a84
 8000580:	080039ec 	.word	0x080039ec
 8000584:	08003a78 	.word	0x08003a78
 8000588:	080039f1 	.word	0x080039f1

0800058c <HAL_TIM_PeriodElapsedCallback>:


void HAL_TIM_PeriodElapsedCallback(TIM_HandleTypeDef *htim) {
  //Update global time
  timestamp++;
 800058c:	4a0a      	ldr	r2, [pc, #40]	@ (80005b8 <HAL_TIM_PeriodElapsedCallback+0x2c>)
  if (buzzerSettingsMode) {
 800058e:	490b      	ldr	r1, [pc, #44]	@ (80005bc <HAL_TIM_PeriodElapsedCallback+0x30>)
  timestamp++;
 8000590:	6813      	ldr	r3, [r2, #0]
 8000592:	3301      	adds	r3, #1
 8000594:	6013      	str	r3, [r2, #0]
  if (buzzerSettingsMode) {
 8000596:	780b      	ldrb	r3, [r1, #0]
 8000598:	2b00      	cmp	r3, #0
 800059a:	d00c      	beq.n	80005b6 <HAL_TIM_PeriodElapsedCallback+0x2a>
    buzzerSafetyCheck++;
 800059c:	4a08      	ldr	r2, [pc, #32]	@ (80005c0 <HAL_TIM_PeriodElapsedCallback+0x34>)
 800059e:	8813      	ldrh	r3, [r2, #0]
 80005a0:	3301      	adds	r3, #1
 80005a2:	b29b      	uxth	r3, r3
 80005a4:	8013      	strh	r3, [r2, #0]
    if (buzzerSafetyCheck >= 360) {
 80005a6:	23b4      	movs	r3, #180	@ 0xb4
 80005a8:	8810      	ldrh	r0, [r2, #0]
 80005aa:	005b      	lsls	r3, r3, #1
 80005ac:	4298      	cmp	r0, r3
 80005ae:	d302      	bcc.n	80005b6 <HAL_TIM_PeriodElapsedCallback+0x2a>
      buzzerSettingsMode = 0;
 80005b0:	2300      	movs	r3, #0
 80005b2:	700b      	strb	r3, [r1, #0]
      buzzerSafetyCheck = 0;
 80005b4:	8013      	strh	r3, [r2, #0]
    }
  }
}
 80005b6:	4770      	bx	lr
 80005b8:	200001d8 	.word	0x200001d8
 80005bc:	200001d6 	.word	0x200001d6
 80005c0:	200001d4 	.word	0x200001d4

080005c4 <Read_JOYSTICK>:
    movement_state = 1;
  }

}

uint16_t Read_JOYSTICK(void) {
 80005c4:	b510      	push	{r4, lr}
  HAL_ADC_Start(&hadc1);
 80005c6:	4c07      	ldr	r4, [pc, #28]	@ (80005e4 <Read_JOYSTICK+0x20>)
 80005c8:	0020      	movs	r0, r4
 80005ca:	f001 fa57 	bl	8001a7c <HAL_ADC_Start>
  HAL_ADC_PollForConversion(&hadc1, HAL_MAX_DELAY);
 80005ce:	2101      	movs	r1, #1
 80005d0:	0020      	movs	r0, r4
 80005d2:	4249      	negs	r1, r1
 80005d4:	f000 ffa2 	bl	800151c <HAL_ADC_PollForConversion>
  return (uint16_t)HAL_ADC_GetValue(&hadc1);
 80005d8:	0020      	movs	r0, r4
 80005da:	f000 ffff 	bl	80015dc <HAL_ADC_GetValue>
 80005de:	b280      	uxth	r0, r0
}
 80005e0:	bd10      	pop	{r4, pc}
 80005e2:	46c0      	nop			@ (mov r8, r8)
 80005e4:	200002a8 	.word	0x200002a8

080005e8 <Dechipher_JOYSTICK>:

JoystickDirection Dechipher_JOYSTICK(uint16_t adc_val) {
 80005e8:	0003      	movs	r3, r0
  if (adc_val < 200)          return JOY_SELECT;
 80005ea:	2000      	movs	r0, #0
 80005ec:	2bc7      	cmp	r3, #199	@ 0xc7
 80005ee:	d911      	bls.n	8000614 <Dechipher_JOYSTICK+0x2c>
  else if (adc_val < 1100)    return JOY_LEFT;
 80005f0:	4a09      	ldr	r2, [pc, #36]	@ (8000618 <Dechipher_JOYSTICK+0x30>)
 80005f2:	3002      	adds	r0, #2
 80005f4:	4293      	cmp	r3, r2
 80005f6:	d90d      	bls.n	8000614 <Dechipher_JOYSTICK+0x2c>
  else if (adc_val < 2100)    return JOY_DOWN;
 80005f8:	4a08      	ldr	r2, [pc, #32]	@ (800061c <Dechipher_JOYSTICK+0x34>)
 80005fa:	3002      	adds	r0, #2
 80005fc:	4293      	cmp	r3, r2
 80005fe:	d909      	bls.n	8000614 <Dechipher_JOYSTICK+0x2c>
  else if (adc_val < 3100)    return JOY_UP;
 8000600:	4a07      	ldr	r2, [pc, #28]	@ (8000620 <Dechipher_JOYSTICK+0x38>)
 8000602:	3801      	subs	r0, #1
 8000604:	4293      	cmp	r3, r2
 8000606:	d905      	bls.n	8000614 <Dechipher_JOYSTICK+0x2c>
  else if (adc_val < 4000)    return JOY_RIGHT;
 8000608:	22fa      	movs	r2, #250	@ 0xfa
  else                    	  return JOY_NONE;
 800060a:	3002      	adds	r0, #2
  else if (adc_val < 4000)    return JOY_RIGHT;
 800060c:	0112      	lsls	r2, r2, #4
 800060e:	4293      	cmp	r3, r2
 8000610:	d200      	bcs.n	8000614 <Dechipher_JOYSTICK+0x2c>
 8000612:	3804      	subs	r0, #4
}
 8000614:	4770      	bx	lr
 8000616:	46c0      	nop			@ (mov r8, r8)
 8000618:	0000044b 	.word	0x0000044b
 800061c:	00000833 	.word	0x00000833
 8000620:	00000c1b 	.word	0x00000c1b

08000624 <handle_movement>:

void handle_movement() {
  session.state = 1;
  session.ab_tim_begun = 0;
  session.ab_timestampe = 0;
 8000624:	2100      	movs	r1, #0
  session.state = 1;
 8000626:	2201      	movs	r2, #1
void handle_movement() {
 8000628:	b510      	push	{r4, lr}
  session.state = 1;
 800062a:	4b14      	ldr	r3, [pc, #80]	@ (800067c <handle_movement+0x58>)
 800062c:	801a      	strh	r2, [r3, #0]
  session.ab_timestampe = 0;
 800062e:	6059      	str	r1, [r3, #4]

  if (!movement_state) {
 8000630:	4b13      	ldr	r3, [pc, #76]	@ (8000680 <handle_movement+0x5c>)
 8000632:	7819      	ldrb	r1, [r3, #0]
 8000634:	2900      	cmp	r1, #0
 8000636:	d100      	bne.n	800063a <handle_movement+0x16>
    movement_state = 1;
 8000638:	701a      	strb	r2, [r3, #0]
  }

  if (!oled_state) {
 800063a:	4c12      	ldr	r4, [pc, #72]	@ (8000684 <handle_movement+0x60>)
 800063c:	7823      	ldrb	r3, [r4, #0]
 800063e:	2b00      	cmp	r3, #0
 8000640:	d109      	bne.n	8000656 <handle_movement+0x32>
    ssd1306_SetDisplayOn(1);
 8000642:	2001      	movs	r0, #1
 8000644:	f000 fd7e 	bl	8001144 <ssd1306_SetDisplayOn>
    ssd1306_Fill(White);
 8000648:	2001      	movs	r0, #1
 800064a:	f000 fc8d 	bl	8000f68 <ssd1306_Fill>
    ssd1306_UpdateScreen();
 800064e:	f000 fc99 	bl	8000f84 <ssd1306_UpdateScreen>
    oled_state = 1;
 8000652:	2301      	movs	r3, #1
 8000654:	7023      	strb	r3, [r4, #0]
  }
  
  if (timestamp % 60 == 1) {
 8000656:	4c0c      	ldr	r4, [pc, #48]	@ (8000688 <handle_movement+0x64>)
 8000658:	213c      	movs	r1, #60	@ 0x3c
 800065a:	6820      	ldr	r0, [r4, #0]
 800065c:	f7ff fed8 	bl	8000410 <__aeabi_idivmod>
 8000660:	2901      	cmp	r1, #1
 8000662:	d109      	bne.n	8000678 <handle_movement+0x54>
    //Convert Current Timestamp to something usable on screen
    timestampToChar(timestamp_str, timestamp);
 8000664:	6821      	ldr	r1, [r4, #0]
 8000666:	4c09      	ldr	r4, [pc, #36]	@ (800068c <handle_movement+0x68>)
 8000668:	0020      	movs	r0, r4
 800066a:	f000 fc13 	bl	8000e94 <timestampToChar>
  
    //Display Everything on screen
    Display_TimeScreen(timestamp_str, avg_str, buzzer_str);
 800066e:	0020      	movs	r0, r4
 8000670:	4a07      	ldr	r2, [pc, #28]	@ (8000690 <handle_movement+0x6c>)
 8000672:	4908      	ldr	r1, [pc, #32]	@ (8000694 <handle_movement+0x70>)
 8000674:	f7ff fed2 	bl	800041c <Display_TimeScreen>
  }
}
 8000678:	bd10      	pop	{r4, pc}
 800067a:	46c0      	nop			@ (mov r8, r8)
 800067c:	200001b8 	.word	0x200001b8
 8000680:	200001dc 	.word	0x200001dc
 8000684:	200001d2 	.word	0x200001d2
 8000688:	200001d8 	.word	0x200001d8
 800068c:	200001cc 	.word	0x200001cc
 8000690:	200001c0 	.word	0x200001c0
 8000694:	200001c6 	.word	0x200001c6

08000698 <handle_absence>:

void handle_absence() {
 8000698:	b570      	push	{r4, r5, r6, lr}
  if (oled_state) {
 800069a:	4c1c      	ldr	r4, [pc, #112]	@ (800070c <handle_absence+0x74>)
 800069c:	7823      	ldrb	r3, [r4, #0]
 800069e:	2b00      	cmp	r3, #0
 80006a0:	d009      	beq.n	80006b6 <handle_absence+0x1e>
    ssd1306_Fill(Black);
 80006a2:	2000      	movs	r0, #0
 80006a4:	f000 fc60 	bl	8000f68 <ssd1306_Fill>
    ssd1306_UpdateScreen();
 80006a8:	f000 fc6c 	bl	8000f84 <ssd1306_UpdateScreen>
    ssd1306_SetDisplayOn(0);
 80006ac:	2000      	movs	r0, #0
 80006ae:	f000 fd49 	bl	8001144 <ssd1306_SetDisplayOn>
    oled_state = 0;
 80006b2:	2300      	movs	r3, #0
 80006b4:	7023      	strb	r3, [r4, #0]
  }

  if (session.state) {
 80006b6:	4b16      	ldr	r3, [pc, #88]	@ (8000710 <handle_absence+0x78>)
 80006b8:	781a      	ldrb	r2, [r3, #0]
 80006ba:	2a00      	cmp	r2, #0
 80006bc:	d020      	beq.n	8000700 <handle_absence+0x68>
    //Begin Countdown
    if (session.ab_tim_begun) {
 80006be:	7859      	ldrb	r1, [r3, #1]
 80006c0:	4a14      	ldr	r2, [pc, #80]	@ (8000714 <handle_absence+0x7c>)
 80006c2:	2900      	cmp	r1, #0
 80006c4:	d01d      	beq.n	8000702 <handle_absence+0x6a>
      if (timestamp >= session.ab_timestampe + 360) {
 80006c6:	6859      	ldr	r1, [r3, #4]
 80006c8:	6810      	ldr	r0, [r2, #0]
 80006ca:	3168      	adds	r1, #104	@ 0x68
 80006cc:	31ff      	adds	r1, #255	@ 0xff
 80006ce:	4281      	cmp	r1, r0
 80006d0:	da16      	bge.n	8000700 <handle_absence+0x68>
        //5 Min Absensence, Enter Low Power Mode
        session.state = 0;
        session.ab_timestampe = 0;
 80006d2:	2100      	movs	r1, #0
 80006d4:	6059      	str	r1, [r3, #4]
        session.state = 0;
 80006d6:	8019      	strh	r1, [r3, #0]
        session.ab_tim_begun = 0;
        timestamp = 0;

        //Store Average
        if (__flash_store(&averages.averages, averages.average_count, &beeper) != HAL_OK) {
 80006d8:	4b0f      	ldr	r3, [pc, #60]	@ (8000718 <handle_absence+0x80>)
        timestamp = 0;
 80006da:	6011      	str	r1, [r2, #0]
        if (__flash_store(&averages.averages, averages.average_count, &beeper) != HAL_OK) {
 80006dc:	8859      	ldrh	r1, [r3, #2]
 80006de:	4a0f      	ldr	r2, [pc, #60]	@ (800071c <handle_absence+0x84>)
 80006e0:	480f      	ldr	r0, [pc, #60]	@ (8000720 <handle_absence+0x88>)
 80006e2:	f000 fb5f 	bl	8000da4 <__flash_store>
 80006e6:	1e04      	subs	r4, r0, #0
 80006e8:	d000      	beq.n	80006ec <handle_absence+0x54>
          //Broken
          while(1);
 80006ea:	e7fe      	b.n	80006ea <handle_absence+0x52>
        }

        //Enter Low Power Mode
        resumeFromStop = 1;
 80006ec:	2601      	movs	r6, #1
 80006ee:	4d0d      	ldr	r5, [pc, #52]	@ (8000724 <handle_absence+0x8c>)
 80006f0:	702e      	strb	r6, [r5, #0]
        HAL_SuspendTick();
 80006f2:	f000 fdf7 	bl	80012e4 <HAL_SuspendTick>
        HAL_PWR_EnterSTOPMode(PWR_MAINREGULATOR_ON, PWR_STOPENTRY_WFI);
 80006f6:	0031      	movs	r1, r6
 80006f8:	0020      	movs	r0, r4
 80006fa:	f001 fe97 	bl	800242c <HAL_PWR_EnterSTOPMode>
        resumeFromStop = 0;
 80006fe:	702c      	strb	r4, [r5, #0]
    } else {
      session.ab_tim_begun = 1;
      session.ab_timestampe = timestamp;
    }
  }
}
 8000700:	bd70      	pop	{r4, r5, r6, pc}
      session.ab_tim_begun = 1;
 8000702:	2101      	movs	r1, #1
      session.ab_timestampe = timestamp;
 8000704:	6812      	ldr	r2, [r2, #0]
      session.ab_tim_begun = 1;
 8000706:	7059      	strb	r1, [r3, #1]
      session.ab_timestampe = timestamp;
 8000708:	605a      	str	r2, [r3, #4]
}
 800070a:	e7f9      	b.n	8000700 <handle_absence+0x68>
 800070c:	200001d2 	.word	0x200001d2
 8000710:	200001b8 	.word	0x200001b8
 8000714:	200001d8 	.word	0x200001d8
 8000718:	200000b4 	.word	0x200000b4
 800071c:	20000000 	.word	0x20000000
 8000720:	200000b8 	.word	0x200000b8
 8000724:	200001d7 	.word	0x200001d7

08000728 <handle_settings_mode>:

void handle_settings_mode() {
 8000728:	b5f0      	push	{r4, r5, r6, r7, lr}
  uint8_t hours = 0;
 800072a:	2400      	movs	r4, #0
void handle_settings_mode() {
 800072c:	b085      	sub	sp, #20
  uint8_t hours = 0;
 800072e:	ab02      	add	r3, sp, #8
  uint8_t minutes = 0;
  uint8_t selected_pos = 0; // 1 -> hours, 0 -> minutes
  uint16_t adc_val = 0;
  JoystickDirection position = JOY_NONE;

  getHoursMins(&hours, &minutes, beeper);
 8000730:	4f2c      	ldr	r7, [pc, #176]	@ (80007e4 <handle_settings_mode+0xbc>)
  uint8_t hours = 0;
 8000732:	1d9d      	adds	r5, r3, #6
  uint8_t minutes = 0;
 8000734:	1dde      	adds	r6, r3, #7
  getHoursMins(&hours, &minutes, beeper);
 8000736:	0031      	movs	r1, r6
 8000738:	0028      	movs	r0, r5
 800073a:	683a      	ldr	r2, [r7, #0]
  uint8_t hours = 0;
 800073c:	702c      	strb	r4, [r5, #0]
  uint8_t minutes = 0;
 800073e:	7034      	strb	r4, [r6, #0]
  getHoursMins(&hours, &minutes, beeper);
 8000740:	f000 fb8c 	bl	8000e5c <getHoursMins>
  while(buzzerSettingsMode) {
 8000744:	4b28      	ldr	r3, [pc, #160]	@ (80007e8 <handle_settings_mode+0xc0>)
 8000746:	9301      	str	r3, [sp, #4]
 8000748:	781b      	ldrb	r3, [r3, #0]
 800074a:	2b00      	cmp	r3, #0
 800074c:	d01d      	beq.n	800078a <handle_settings_mode+0x62>
    adc_val = Read_JOYSTICK();
 800074e:	f7ff ff39 	bl	80005c4 <Read_JOYSTICK>
    position = Dechipher_JOYSTICK(adc_val);
 8000752:	f7ff ff49 	bl	80005e8 <Dechipher_JOYSTICK>
    
    switch (position) {
 8000756:	2804      	cmp	r0, #4
 8000758:	d822      	bhi.n	80007a0 <handle_settings_mode+0x78>
 800075a:	f7ff fcd5 	bl	8000108 <__gnu_thumb1_case_uqi>
 800075e:	3e03      	.short	0x3e03
 8000760:	1820      	.short	0x1820
 8000762:	34          	.byte	0x34
 8000763:	00          	.byte	0x00
      case JOY_SELECT:
		buzzerSettingsMode = 0;  // pressing select again exits settings
 8000764:	2300      	movs	r3, #0
 8000766:	9a01      	ldr	r2, [sp, #4]
		buzzerSafetyCheck = 0;
	    //Redisplay everything on screen
		timestampToChar(buzzer_str, beeper);
 8000768:	4c20      	ldr	r4, [pc, #128]	@ (80007ec <handle_settings_mode+0xc4>)
		buzzerSettingsMode = 0;  // pressing select again exits settings
 800076a:	7013      	strb	r3, [r2, #0]
		buzzerSafetyCheck = 0;
 800076c:	4a20      	ldr	r2, [pc, #128]	@ (80007f0 <handle_settings_mode+0xc8>)
		timestampToChar(buzzer_str, beeper);
 800076e:	0020      	movs	r0, r4
 8000770:	6839      	ldr	r1, [r7, #0]
		buzzerSafetyCheck = 0;
 8000772:	8013      	strh	r3, [r2, #0]
		timestampToChar(buzzer_str, beeper);
 8000774:	f000 fb8e 	bl	8000e94 <timestampToChar>
	    Display_TimeScreen(timestamp_str, avg_str, buzzer_str);
 8000778:	481e      	ldr	r0, [pc, #120]	@ (80007f4 <handle_settings_mode+0xcc>)
 800077a:	0022      	movs	r2, r4
 800077c:	491e      	ldr	r1, [pc, #120]	@ (80007f8 <handle_settings_mode+0xd0>)
 800077e:	f7ff fe4d 	bl	800041c <Display_TimeScreen>
		HAL_Delay(300);          // debounce
 8000782:	2096      	movs	r0, #150	@ 0x96
 8000784:	0040      	lsls	r0, r0, #1
 8000786:	f000 fd9b 	bl	80012c0 <HAL_Delay>
    }
    beeper = hoursMinsToTimestamp(hours, minutes);
    Display_SettingsScreen(hours, minutes, selected_pos);
    HAL_Delay(100);
  }
}
 800078a:	b005      	add	sp, #20
 800078c:	bdf0      	pop	{r4, r5, r6, r7, pc}
          if (hours < 99) {
 800078e:	782a      	ldrb	r2, [r5, #0]
          if (minutes < 59) {
 8000790:	7833      	ldrb	r3, [r6, #0]
        if (selected_pos) {
 8000792:	2c00      	cmp	r4, #0
 8000794:	d012      	beq.n	80007bc <handle_settings_mode+0x94>
          if (hours < 99) {
 8000796:	2a62      	cmp	r2, #98	@ 0x62
 8000798:	d801      	bhi.n	800079e <handle_settings_mode+0x76>
            hours++;
 800079a:	3201      	adds	r2, #1
 800079c:	702a      	strb	r2, [r5, #0]
        selected_pos = 1;
 800079e:	2401      	movs	r4, #1
    beeper = hoursMinsToTimestamp(hours, minutes);
 80007a0:	7831      	ldrb	r1, [r6, #0]
 80007a2:	7828      	ldrb	r0, [r5, #0]
 80007a4:	f000 fb8a 	bl	8000ebc <hoursMinsToTimestamp>
    Display_SettingsScreen(hours, minutes, selected_pos);
 80007a8:	0022      	movs	r2, r4
    beeper = hoursMinsToTimestamp(hours, minutes);
 80007aa:	6038      	str	r0, [r7, #0]
    Display_SettingsScreen(hours, minutes, selected_pos);
 80007ac:	7831      	ldrb	r1, [r6, #0]
 80007ae:	7828      	ldrb	r0, [r5, #0]
 80007b0:	f7ff fe8a 	bl	80004c8 <Display_SettingsScreen>
    HAL_Delay(100);
 80007b4:	2064      	movs	r0, #100	@ 0x64
 80007b6:	f000 fd83 	bl	80012c0 <HAL_Delay>
 80007ba:	e7c3      	b.n	8000744 <handle_settings_mode+0x1c>
          if (minutes < 59) {
 80007bc:	2b3a      	cmp	r3, #58	@ 0x3a
 80007be:	d80c      	bhi.n	80007da <handle_settings_mode+0xb2>
            minutes++;
 80007c0:	3301      	adds	r3, #1
            minutes--;
 80007c2:	7033      	strb	r3, [r6, #0]
 80007c4:	e009      	b.n	80007da <handle_settings_mode+0xb2>
          if (hours < 99) {
 80007c6:	782a      	ldrb	r2, [r5, #0]
          if (minutes < 59) {
 80007c8:	7833      	ldrb	r3, [r6, #0]
        if (selected_pos) {
 80007ca:	2c00      	cmp	r4, #0
 80007cc:	d003      	beq.n	80007d6 <handle_settings_mode+0xae>
          if (hours > 0) {
 80007ce:	2a00      	cmp	r2, #0
 80007d0:	d0e5      	beq.n	800079e <handle_settings_mode+0x76>
            hours--;
 80007d2:	3a01      	subs	r2, #1
 80007d4:	e7e2      	b.n	800079c <handle_settings_mode+0x74>
          if (minutes > 0) {
 80007d6:	2b00      	cmp	r3, #0
 80007d8:	d101      	bne.n	80007de <handle_settings_mode+0xb6>
        selected_pos = 0;
 80007da:	2400      	movs	r4, #0
 80007dc:	e7e0      	b.n	80007a0 <handle_settings_mode+0x78>
            minutes--;
 80007de:	3b01      	subs	r3, #1
 80007e0:	e7ef      	b.n	80007c2 <handle_settings_mode+0x9a>
 80007e2:	46c0      	nop			@ (mov r8, r8)
 80007e4:	20000000 	.word	0x20000000
 80007e8:	200001d6 	.word	0x200001d6
 80007ec:	200001c0 	.word	0x200001c0
 80007f0:	200001d4 	.word	0x200001d4
 80007f4:	200001cc 	.word	0x200001cc
 80007f8:	200001c6 	.word	0x200001c6

080007fc <SystemClock_Config>:
/**
  * @brief System Clock Configuration
  * @retval None
  */
void SystemClock_Config(void)
{
 80007fc:	b510      	push	{r4, lr}
  RCC_OscInitTypeDef RCC_OscInitStruct = {0};
  RCC_ClkInitTypeDef RCC_ClkInitStruct = {0};

  __HAL_FLASH_SET_LATENCY(FLASH_LATENCY_0);
 80007fe:	2407      	movs	r4, #7
{
 8000800:	b08c      	sub	sp, #48	@ 0x30
  RCC_OscInitTypeDef RCC_OscInitStruct = {0};
 8000802:	2208      	movs	r2, #8
 8000804:	2100      	movs	r1, #0
 8000806:	a806      	add	r0, sp, #24
 8000808:	f002 fc4e 	bl	80030a8 <memset>
  RCC_ClkInitTypeDef RCC_ClkInitStruct = {0};
 800080c:	2100      	movs	r1, #0
 800080e:	2214      	movs	r2, #20
 8000810:	4668      	mov	r0, sp
 8000812:	f002 fc49 	bl	80030a8 <memset>
  __HAL_FLASH_SET_LATENCY(FLASH_LATENCY_0);
 8000816:	4a12      	ldr	r2, [pc, #72]	@ (8000860 <SystemClock_Config+0x64>)
  RCC_OscInitStruct.OscillatorType = RCC_OSCILLATORTYPE_HSI|RCC_OSCILLATORTYPE_LSI;
  RCC_OscInitStruct.HSIState = RCC_HSI_ON;
  RCC_OscInitStruct.HSIDiv = RCC_HSI_DIV4;
  RCC_OscInitStruct.HSICalibrationValue = RCC_HSICALIBRATION_DEFAULT;
  RCC_OscInitStruct.LSIState = RCC_LSI_ON;
  if (HAL_RCC_OscConfig(&RCC_OscInitStruct) != HAL_OK)
 8000818:	a805      	add	r0, sp, #20
  __HAL_FLASH_SET_LATENCY(FLASH_LATENCY_0);
 800081a:	6813      	ldr	r3, [r2, #0]
 800081c:	43a3      	bics	r3, r4
 800081e:	6013      	str	r3, [r2, #0]
  RCC_OscInitStruct.OscillatorType = RCC_OSCILLATORTYPE_HSI|RCC_OSCILLATORTYPE_LSI;
 8000820:	230a      	movs	r3, #10
 8000822:	9305      	str	r3, [sp, #20]
  RCC_OscInitStruct.HSIState = RCC_HSI_ON;
 8000824:	33f6      	adds	r3, #246	@ 0xf6
 8000826:	9308      	str	r3, [sp, #32]
  RCC_OscInitStruct.HSIDiv = RCC_HSI_DIV4;
 8000828:	2380      	movs	r3, #128	@ 0x80
 800082a:	015b      	lsls	r3, r3, #5
 800082c:	9309      	str	r3, [sp, #36]	@ 0x24
  RCC_OscInitStruct.HSICalibrationValue = RCC_HSICALIBRATION_DEFAULT;
 800082e:	2340      	movs	r3, #64	@ 0x40
 8000830:	930a      	str	r3, [sp, #40]	@ 0x28
  RCC_OscInitStruct.LSIState = RCC_LSI_ON;
 8000832:	3b3f      	subs	r3, #63	@ 0x3f
 8000834:	930b      	str	r3, [sp, #44]	@ 0x2c
  if (HAL_RCC_OscConfig(&RCC_OscInitStruct) != HAL_OK)
 8000836:	f001 fe13 	bl	8002460 <HAL_RCC_OscConfig>
 800083a:	1e01      	subs	r1, r0, #0
 800083c:	d001      	beq.n	8000842 <SystemClock_Config+0x46>
  \details Disables IRQ interrupts by setting special-purpose register PRIMASK.
           Can only be executed in Privileged modes.
 */
__STATIC_FORCEINLINE void __disable_irq(void)
{
  __ASM volatile ("cpsid i" : : : "memory");
 800083e:	b672      	cpsid	i
void Error_Handler(void)
{
  /* USER CODE BEGIN Error_Handler_Debug */
  /* User can add his own implementation to report the HAL error return state */
  __disable_irq();
  while (1)
 8000840:	e7fe      	b.n	8000840 <SystemClock_Config+0x44>
  RCC_ClkInitStruct.SYSCLKSource = RCC_SYSCLKSOURCE_HSI;
 8000842:	9001      	str	r0, [sp, #4]
  RCC_ClkInitStruct.SYSCLKDivider = RCC_SYSCLK_DIV1;
 8000844:	9002      	str	r0, [sp, #8]
  RCC_ClkInitStruct.AHBCLKDivider = RCC_HCLK_DIV1;
 8000846:	9003      	str	r0, [sp, #12]
  RCC_ClkInitStruct.APB1CLKDivider = RCC_APB1_DIV1;
 8000848:	9004      	str	r0, [sp, #16]
  if (HAL_RCC_ClockConfig(&RCC_ClkInitStruct, FLASH_LATENCY_0) != HAL_OK)
 800084a:	4668      	mov	r0, sp
  RCC_ClkInitStruct.ClockType = RCC_CLOCKTYPE_HCLK|RCC_CLOCKTYPE_SYSCLK
 800084c:	9400      	str	r4, [sp, #0]
  if (HAL_RCC_ClockConfig(&RCC_ClkInitStruct, FLASH_LATENCY_0) != HAL_OK)
 800084e:	f001 ff63 	bl	8002718 <HAL_RCC_ClockConfig>
 8000852:	2800      	cmp	r0, #0
 8000854:	d001      	beq.n	800085a <SystemClock_Config+0x5e>
 8000856:	b672      	cpsid	i
  while (1)
 8000858:	e7fe      	b.n	8000858 <SystemClock_Config+0x5c>
}
 800085a:	b00c      	add	sp, #48	@ 0x30
 800085c:	bd10      	pop	{r4, pc}
 800085e:	46c0      	nop			@ (mov r8, r8)
 8000860:	40022000 	.word	0x40022000

08000864 <main>:
{
 8000864:	b5f0      	push	{r4, r5, r6, r7, lr}
  __HAL_RCC_GPIOA_CLK_ENABLE();
 8000866:	2701      	movs	r7, #1
{
 8000868:	b091      	sub	sp, #68	@ 0x44
  HAL_Init();
 800086a:	f000 fd0b 	bl	8001284 <HAL_Init>
  SystemClock_Config();
 800086e:	f7ff ffc5 	bl	80007fc <SystemClock_Config>
  GPIO_InitTypeDef GPIO_InitStruct = {0};
 8000872:	220c      	movs	r2, #12
 8000874:	2100      	movs	r1, #0
 8000876:	a80d      	add	r0, sp, #52	@ 0x34
 8000878:	f002 fc16 	bl	80030a8 <memset>
  __HAL_RCC_GPIOB_CLK_ENABLE();
 800087c:	2102      	movs	r1, #2
  GPIO_InitStruct.Pin = INFRARED_Pin;
 800087e:	2580      	movs	r5, #128	@ 0x80
  HAL_GPIO_Init(INFRARED_GPIO_Port, &GPIO_InitStruct);
 8000880:	20a0      	movs	r0, #160	@ 0xa0
  __HAL_RCC_GPIOA_CLK_ENABLE();
 8000882:	4b94      	ldr	r3, [pc, #592]	@ (8000ad4 <main+0x270>)
  HAL_GPIO_Init(INFRARED_GPIO_Port, &GPIO_InitStruct);
 8000884:	05c0      	lsls	r0, r0, #23
  __HAL_RCC_GPIOA_CLK_ENABLE();
 8000886:	6b5a      	ldr	r2, [r3, #52]	@ 0x34
  GPIO_InitStruct.Pin = INFRARED_Pin;
 8000888:	016d      	lsls	r5, r5, #5
  __HAL_RCC_GPIOA_CLK_ENABLE();
 800088a:	433a      	orrs	r2, r7
 800088c:	635a      	str	r2, [r3, #52]	@ 0x34
 800088e:	6b5a      	ldr	r2, [r3, #52]	@ 0x34
 8000890:	403a      	ands	r2, r7
 8000892:	9201      	str	r2, [sp, #4]
 8000894:	9a01      	ldr	r2, [sp, #4]
  __HAL_RCC_GPIOB_CLK_ENABLE();
 8000896:	6b5a      	ldr	r2, [r3, #52]	@ 0x34
 8000898:	430a      	orrs	r2, r1
 800089a:	635a      	str	r2, [r3, #52]	@ 0x34
 800089c:	6b5a      	ldr	r2, [r3, #52]	@ 0x34
 800089e:	400a      	ands	r2, r1
 80008a0:	9202      	str	r2, [sp, #8]
 80008a2:	9a02      	ldr	r2, [sp, #8]
  __HAL_RCC_GPIOC_CLK_ENABLE();
 80008a4:	6b5a      	ldr	r2, [r3, #52]	@ 0x34
 80008a6:	1849      	adds	r1, r1, r1
 80008a8:	430a      	orrs	r2, r1
 80008aa:	635a      	str	r2, [r3, #52]	@ 0x34
 80008ac:	6b5b      	ldr	r3, [r3, #52]	@ 0x34
  GPIO_InitStruct.Pin = INFRARED_Pin;
 80008ae:	950b      	str	r5, [sp, #44]	@ 0x2c
  __HAL_RCC_GPIOC_CLK_ENABLE();
 80008b0:	400b      	ands	r3, r1
 80008b2:	9303      	str	r3, [sp, #12]
 80008b4:	9b03      	ldr	r3, [sp, #12]
  GPIO_InitStruct.Mode = GPIO_MODE_IT_RISING;
 80008b6:	4b88      	ldr	r3, [pc, #544]	@ (8000ad8 <main+0x274>)
  HAL_GPIO_Init(INFRARED_GPIO_Port, &GPIO_InitStruct);
 80008b8:	a90b      	add	r1, sp, #44	@ 0x2c
  GPIO_InitStruct.Mode = GPIO_MODE_IT_RISING;
 80008ba:	930c      	str	r3, [sp, #48]	@ 0x30
  HAL_GPIO_Init(INFRARED_GPIO_Port, &GPIO_InitStruct);
 80008bc:	f001 fa38 	bl	8001d30 <HAL_GPIO_Init>
  HAL_NVIC_SetPriority(EXTI4_15_IRQn, 0, 0);
 80008c0:	2200      	movs	r2, #0
 80008c2:	2007      	movs	r0, #7
 80008c4:	0011      	movs	r1, r2
 80008c6:	f001 f90b 	bl	8001ae0 <HAL_NVIC_SetPriority>
  HAL_NVIC_EnableIRQ(EXTI4_15_IRQn);
 80008ca:	2007      	movs	r0, #7
 80008cc:	f001 f932 	bl	8001b34 <HAL_NVIC_EnableIRQ>
  hi2c1.Instance = I2C1;
 80008d0:	4c82      	ldr	r4, [pc, #520]	@ (8000adc <main+0x278>)
 80008d2:	4b83      	ldr	r3, [pc, #524]	@ (8000ae0 <main+0x27c>)
  if (HAL_I2C_Init(&hi2c1) != HAL_OK)
 80008d4:	0020      	movs	r0, r4
  hi2c1.Instance = I2C1;
 80008d6:	6023      	str	r3, [r4, #0]
  hi2c1.Init.Timing = 0x00402D41;
 80008d8:	4b82      	ldr	r3, [pc, #520]	@ (8000ae4 <main+0x280>)
  hi2c1.Init.AddressingMode = I2C_ADDRESSINGMODE_7BIT;
 80008da:	60e7      	str	r7, [r4, #12]
  hi2c1.Init.Timing = 0x00402D41;
 80008dc:	6063      	str	r3, [r4, #4]
  hi2c1.Init.OwnAddress1 = 0;
 80008de:	2300      	movs	r3, #0
 80008e0:	60a3      	str	r3, [r4, #8]
  hi2c1.Init.DualAddressMode = I2C_DUALADDRESS_DISABLE;
 80008e2:	6123      	str	r3, [r4, #16]
  hi2c1.Init.OwnAddress2 = 0;
 80008e4:	6163      	str	r3, [r4, #20]
  hi2c1.Init.OwnAddress2Masks = I2C_OA2_NOMASK;
 80008e6:	61a3      	str	r3, [r4, #24]
  hi2c1.Init.GeneralCallMode = I2C_GENERALCALL_DISABLE;
 80008e8:	61e3      	str	r3, [r4, #28]
  hi2c1.Init.NoStretchMode = I2C_NOSTRETCH_DISABLE;
 80008ea:	6223      	str	r3, [r4, #32]
  if (HAL_I2C_Init(&hi2c1) != HAL_OK)
 80008ec:	f001 fc1c 	bl	8002128 <HAL_I2C_Init>
 80008f0:	1e01      	subs	r1, r0, #0
 80008f2:	d001      	beq.n	80008f8 <main+0x94>
 80008f4:	b672      	cpsid	i
  while (1)
 80008f6:	e7fe      	b.n	80008f6 <main+0x92>
  if (HAL_I2CEx_ConfigAnalogFilter(&hi2c1, I2C_ANALOGFILTER_ENABLE) != HAL_OK)
 80008f8:	0020      	movs	r0, r4
 80008fa:	f001 fd4d 	bl	8002398 <HAL_I2CEx_ConfigAnalogFilter>
 80008fe:	1e01      	subs	r1, r0, #0
 8000900:	d001      	beq.n	8000906 <main+0xa2>
 8000902:	b672      	cpsid	i
  while (1)
 8000904:	e7fe      	b.n	8000904 <main+0xa0>
  if (HAL_I2CEx_ConfigDigitalFilter(&hi2c1, 0) != HAL_OK)
 8000906:	0020      	movs	r0, r4
 8000908:	f001 fd6c 	bl	80023e4 <HAL_I2CEx_ConfigDigitalFilter>
 800090c:	1e03      	subs	r3, r0, #0
 800090e:	d001      	beq.n	8000914 <main+0xb0>
 8000910:	b672      	cpsid	i
  while (1)
 8000912:	e7fe      	b.n	8000912 <main+0xae>
  hrtc.Instance = RTC;
 8000914:	4874      	ldr	r0, [pc, #464]	@ (8000ae8 <main+0x284>)
 8000916:	4a75      	ldr	r2, [pc, #468]	@ (8000aec <main+0x288>)
  hrtc.Init.HourFormat = RTC_HOURFORMAT_24;
 8000918:	6043      	str	r3, [r0, #4]
  hrtc.Instance = RTC;
 800091a:	6002      	str	r2, [r0, #0]
  hrtc.Init.AsynchPrediv = 127;
 800091c:	227f      	movs	r2, #127	@ 0x7f
 800091e:	6082      	str	r2, [r0, #8]
  hrtc.Init.SynchPrediv = 255;
 8000920:	3280      	adds	r2, #128	@ 0x80
 8000922:	60c2      	str	r2, [r0, #12]
  hrtc.Init.OutPutType = RTC_OUTPUT_TYPE_OPENDRAIN;
 8000924:	2280      	movs	r2, #128	@ 0x80
 8000926:	05d2      	lsls	r2, r2, #23
  hrtc.Init.OutPut = RTC_OUTPUT_DISABLE;
 8000928:	6103      	str	r3, [r0, #16]
  hrtc.Init.OutPutRemap = RTC_OUTPUT_REMAP_NONE;
 800092a:	6143      	str	r3, [r0, #20]
  hrtc.Init.OutPutPolarity = RTC_OUTPUT_POLARITY_HIGH;
 800092c:	6183      	str	r3, [r0, #24]
  hrtc.Init.OutPutType = RTC_OUTPUT_TYPE_OPENDRAIN;
 800092e:	61c2      	str	r2, [r0, #28]
  hrtc.Init.OutPutPullUp = RTC_OUTPUT_PULLUP_NONE;
 8000930:	6203      	str	r3, [r0, #32]
  if (HAL_RTC_Init(&hrtc) != HAL_OK)
 8000932:	f002 f899 	bl	8002a68 <HAL_RTC_Init>
 8000936:	1e04      	subs	r4, r0, #0
 8000938:	d001      	beq.n	800093e <main+0xda>
 800093a:	b672      	cpsid	i
  while (1)
 800093c:	e7fe      	b.n	800093c <main+0xd8>
  TIM_ClockConfigTypeDef sClockSourceConfig = {0};
 800093e:	0001      	movs	r1, r0
 8000940:	2210      	movs	r2, #16
 8000942:	a807      	add	r0, sp, #28
 8000944:	f002 fbb0 	bl	80030a8 <memset>
  TIM_SlaveConfigTypeDef sSlaveConfig = {0};
 8000948:	2214      	movs	r2, #20
 800094a:	0021      	movs	r1, r4
 800094c:	a80b      	add	r0, sp, #44	@ 0x2c
 800094e:	f002 fbab 	bl	80030a8 <memset>
  TIM_MasterConfigTypeDef sMasterConfig = {0};
 8000952:	220c      	movs	r2, #12
 8000954:	0021      	movs	r1, r4
 8000956:	a804      	add	r0, sp, #16
 8000958:	f002 fba6 	bl	80030a8 <memset>
  htim1.Instance = TIM1;
 800095c:	4e64      	ldr	r6, [pc, #400]	@ (8000af0 <main+0x28c>)
 800095e:	4b65      	ldr	r3, [pc, #404]	@ (8000af4 <main+0x290>)
  if (HAL_TIM_Base_Init(&htim1) != HAL_OK)
 8000960:	0030      	movs	r0, r6
  htim1.Instance = TIM1;
 8000962:	6033      	str	r3, [r6, #0]
  htim1.Init.Prescaler = 999;
 8000964:	4b64      	ldr	r3, [pc, #400]	@ (8000af8 <main+0x294>)
  htim1.Init.CounterMode = TIM_COUNTERMODE_UP;
 8000966:	60b4      	str	r4, [r6, #8]
  htim1.Init.Prescaler = 999;
 8000968:	6073      	str	r3, [r6, #4]
  htim1.Init.Period = 11999;
 800096a:	4b64      	ldr	r3, [pc, #400]	@ (8000afc <main+0x298>)
  htim1.Init.ClockDivision = TIM_CLOCKDIVISION_DIV1;
 800096c:	6134      	str	r4, [r6, #16]
  htim1.Init.Period = 11999;
 800096e:	60f3      	str	r3, [r6, #12]
  htim1.Init.RepetitionCounter = 0;
 8000970:	6174      	str	r4, [r6, #20]
  htim1.Init.AutoReloadPreload = TIM_AUTORELOAD_PRELOAD_DISABLE;
 8000972:	61b4      	str	r4, [r6, #24]
  if (HAL_TIM_Base_Init(&htim1) != HAL_OK)
 8000974:	f002 f9e4 	bl	8002d40 <HAL_TIM_Base_Init>
 8000978:	2800      	cmp	r0, #0
 800097a:	d001      	beq.n	8000980 <main+0x11c>
 800097c:	b672      	cpsid	i
  while (1)
 800097e:	e7fe      	b.n	800097e <main+0x11a>
  if (HAL_TIM_ConfigClockSource(&htim1, &sClockSourceConfig) != HAL_OK)
 8000980:	0030      	movs	r0, r6
 8000982:	a907      	add	r1, sp, #28
  sClockSourceConfig.ClockSource = TIM_CLOCKSOURCE_INTERNAL;
 8000984:	9507      	str	r5, [sp, #28]
  if (HAL_TIM_ConfigClockSource(&htim1, &sClockSourceConfig) != HAL_OK)
 8000986:	f002 fa11 	bl	8002dac <HAL_TIM_ConfigClockSource>
 800098a:	2800      	cmp	r0, #0
 800098c:	d001      	beq.n	8000992 <main+0x12e>
 800098e:	b672      	cpsid	i
  while (1)
 8000990:	e7fe      	b.n	8000990 <main+0x12c>
  sSlaveConfig.SlaveMode = TIM_SLAVEMODE_DISABLE;
 8000992:	900b      	str	r0, [sp, #44]	@ 0x2c
  sSlaveConfig.InputTrigger = TIM_TS_ITR0;
 8000994:	900c      	str	r0, [sp, #48]	@ 0x30
  if (HAL_TIM_SlaveConfigSynchro(&htim1, &sSlaveConfig) != HAL_OK)
 8000996:	a90b      	add	r1, sp, #44	@ 0x2c
 8000998:	0030      	movs	r0, r6
 800099a:	f002 fb09 	bl	8002fb0 <HAL_TIM_SlaveConfigSynchro>
 800099e:	2800      	cmp	r0, #0
 80009a0:	d001      	beq.n	80009a6 <main+0x142>
 80009a2:	b672      	cpsid	i
  while (1)
 80009a4:	e7fe      	b.n	80009a4 <main+0x140>
  sMasterConfig.MasterOutputTrigger = TIM_TRGO_RESET;
 80009a6:	9004      	str	r0, [sp, #16]
  sMasterConfig.MasterOutputTrigger2 = TIM_TRGO2_RESET;
 80009a8:	9005      	str	r0, [sp, #20]
  sMasterConfig.MasterSlaveMode = TIM_MASTERSLAVEMODE_DISABLE;
 80009aa:	9006      	str	r0, [sp, #24]
  if (HAL_TIMEx_MasterConfigSynchronization(&htim1, &sMasterConfig) != HAL_OK)
 80009ac:	a904      	add	r1, sp, #16
 80009ae:	0030      	movs	r0, r6
 80009b0:	f002 fb24 	bl	8002ffc <HAL_TIMEx_MasterConfigSynchronization>
 80009b4:	1e05      	subs	r5, r0, #0
 80009b6:	d001      	beq.n	80009bc <main+0x158>
 80009b8:	b672      	cpsid	i
  while (1)
 80009ba:	e7fe      	b.n	80009ba <main+0x156>
  ADC_ChannelConfTypeDef sConfig = {0};
 80009bc:	0001      	movs	r1, r0
 80009be:	220c      	movs	r2, #12
 80009c0:	a80b      	add	r0, sp, #44	@ 0x2c
 80009c2:	f002 fb71 	bl	80030a8 <memset>
  hadc1.Instance = ADC1;
 80009c6:	4c4e      	ldr	r4, [pc, #312]	@ (8000b00 <main+0x29c>)
 80009c8:	4b4e      	ldr	r3, [pc, #312]	@ (8000b04 <main+0x2a0>)
  if (HAL_ADC_Init(&hadc1) != HAL_OK)
 80009ca:	0020      	movs	r0, r4
  hadc1.Instance = ADC1;
 80009cc:	6023      	str	r3, [r4, #0]
  hadc1.Init.ClockPrescaler = ADC_CLOCK_SYNC_PCLK_DIV2;
 80009ce:	2380      	movs	r3, #128	@ 0x80
 80009d0:	05db      	lsls	r3, r3, #23
 80009d2:	6063      	str	r3, [r4, #4]
  hadc1.Init.ScanConvMode = ADC_SCAN_SEQ_FIXED;
 80009d4:	2380      	movs	r3, #128	@ 0x80
 80009d6:	061b      	lsls	r3, r3, #24
 80009d8:	6123      	str	r3, [r4, #16]
  hadc1.Init.EOCSelection = ADC_EOC_SINGLE_CONV;
 80009da:	2304      	movs	r3, #4
 80009dc:	6163      	str	r3, [r4, #20]
  hadc1.Init.DiscontinuousConvMode = DISABLE;
 80009de:	1c63      	adds	r3, r4, #1
 80009e0:	77dd      	strb	r5, [r3, #31]
  hadc1.Init.DMAContinuousRequests = DISABLE;
 80009e2:	0023      	movs	r3, r4
 80009e4:	332c      	adds	r3, #44	@ 0x2c
 80009e6:	701d      	strb	r5, [r3, #0]
  hadc1.Init.OversamplingMode = DISABLE;
 80009e8:	0023      	movs	r3, r4
 80009ea:	333c      	adds	r3, #60	@ 0x3c
  hadc1.Init.Resolution = ADC_RESOLUTION_12B;
 80009ec:	60a5      	str	r5, [r4, #8]
  hadc1.Init.DataAlign = ADC_DATAALIGN_RIGHT;
 80009ee:	60e5      	str	r5, [r4, #12]
  hadc1.Init.LowPowerAutoWait = DISABLE;
 80009f0:	8325      	strh	r5, [r4, #24]
  hadc1.Init.ContinuousConvMode = DISABLE;
 80009f2:	76a5      	strb	r5, [r4, #26]
  hadc1.Init.NbrOfConversion = 1;
 80009f4:	61e7      	str	r7, [r4, #28]
  hadc1.Init.ExternalTrigConv = ADC_SOFTWARE_START;
 80009f6:	6265      	str	r5, [r4, #36]	@ 0x24
  hadc1.Init.ExternalTrigConvEdge = ADC_EXTERNALTRIGCONVEDGE_NONE;
 80009f8:	62a5      	str	r5, [r4, #40]	@ 0x28
  hadc1.Init.Overrun = ADC_OVR_DATA_PRESERVED;
 80009fa:	6325      	str	r5, [r4, #48]	@ 0x30
  hadc1.Init.SamplingTimeCommon1 = ADC_SAMPLETIME_1CYCLE_5;
 80009fc:	6365      	str	r5, [r4, #52]	@ 0x34
  hadc1.Init.OversamplingMode = DISABLE;
 80009fe:	701d      	strb	r5, [r3, #0]
  hadc1.Init.TriggerFrequencyMode = ADC_TRIGGER_FREQ_HIGH;
 8000a00:	64e5      	str	r5, [r4, #76]	@ 0x4c
  if (HAL_ADC_Init(&hadc1) != HAL_OK)
 8000a02:	f000 fc7b 	bl	80012fc <HAL_ADC_Init>
 8000a06:	2800      	cmp	r0, #0
 8000a08:	d001      	beq.n	8000a0e <main+0x1aa>
 8000a0a:	b672      	cpsid	i
  while (1)
 8000a0c:	e7fe      	b.n	8000a0c <main+0x1a8>
  sConfig.Channel = ADC_CHANNEL_8;
 8000a0e:	4b3e      	ldr	r3, [pc, #248]	@ (8000b08 <main+0x2a4>)
  if (HAL_ADC_ConfigChannel(&hadc1, &sConfig) != HAL_OK)
 8000a10:	0020      	movs	r0, r4
 8000a12:	a90b      	add	r1, sp, #44	@ 0x2c
  sConfig.Channel = ADC_CHANNEL_8;
 8000a14:	930b      	str	r3, [sp, #44]	@ 0x2c
  sConfig.Rank = ADC_RANK_CHANNEL_NUMBER;
 8000a16:	970c      	str	r7, [sp, #48]	@ 0x30
  if (HAL_ADC_ConfigChannel(&hadc1, &sConfig) != HAL_OK)
 8000a18:	f000 feb4 	bl	8001784 <HAL_ADC_ConfigChannel>
 8000a1c:	2800      	cmp	r0, #0
 8000a1e:	d001      	beq.n	8000a24 <main+0x1c0>
 8000a20:	b672      	cpsid	i
  while (1)
 8000a22:	e7fe      	b.n	8000a22 <main+0x1be>
  HAL_TIM_Base_Start_IT(&htim1);
 8000a24:	0030      	movs	r0, r6
 8000a26:	f002 f86d 	bl	8002b04 <HAL_TIM_Base_Start_IT>
  ssd1306_Init();
 8000a2a:	f000 fb99 	bl	8001160 <ssd1306_Init>
  if (!oled_state) {
 8000a2e:	4c37      	ldr	r4, [pc, #220]	@ (8000b0c <main+0x2a8>)
 8000a30:	7823      	ldrb	r3, [r4, #0]
 8000a32:	2b00      	cmp	r3, #0
 8000a34:	d109      	bne.n	8000a4a <main+0x1e6>
    ssd1306_SetDisplayOn(1);
 8000a36:	2001      	movs	r0, #1
 8000a38:	f000 fb84 	bl	8001144 <ssd1306_SetDisplayOn>
    ssd1306_Fill(White);
 8000a3c:	2001      	movs	r0, #1
 8000a3e:	f000 fa93 	bl	8000f68 <ssd1306_Fill>
    ssd1306_UpdateScreen();
 8000a42:	f000 fa9f 	bl	8000f84 <ssd1306_UpdateScreen>
    oled_state = 1;
 8000a46:	2301      	movs	r3, #1
 8000a48:	7023      	strb	r3, [r4, #0]
  if (__load_fromFlash(&averages.averages, &beeper) == 0) {
 8000a4a:	4d31      	ldr	r5, [pc, #196]	@ (8000b10 <main+0x2ac>)
 8000a4c:	4831      	ldr	r0, [pc, #196]	@ (8000b14 <main+0x2b0>)
 8000a4e:	0029      	movs	r1, r5
 8000a50:	f000 f990 	bl	8000d74 <__load_fromFlash>
 8000a54:	4e30      	ldr	r6, [pc, #192]	@ (8000b18 <main+0x2b4>)
 8000a56:	1e03      	subs	r3, r0, #0
 8000a58:	4830      	ldr	r0, [pc, #192]	@ (8000b1c <main+0x2b8>)
 8000a5a:	d128      	bne.n	8000aae <main+0x24a>
	  sprintf(avg_str, "00:00");
 8000a5c:	4d30      	ldr	r5, [pc, #192]	@ (8000b20 <main+0x2bc>)
 8000a5e:	0029      	movs	r1, r5
 8000a60:	f002 fb56 	bl	8003110 <strcpy>
	  sprintf(buzzer_str, "00:00");
 8000a64:	0029      	movs	r1, r5
 8000a66:	0030      	movs	r0, r6
 8000a68:	f002 fb52 	bl	8003110 <strcpy>
    movement_state = 1;
 8000a6c:	2701      	movs	r7, #1
 8000a6e:	4e2d      	ldr	r6, [pc, #180]	@ (8000b24 <main+0x2c0>)
 8000a70:	7037      	strb	r7, [r6, #0]
    oled_state = ssd1306_GetDisplayOn();
 8000a72:	f000 fbd9 	bl	8001228 <ssd1306_GetDisplayOn>
 8000a76:	7020      	strb	r0, [r4, #0]
    JoystickDirection joy = Dechipher_JOYSTICK(Read_JOYSTICK());
 8000a78:	f7ff fda4 	bl	80005c4 <Read_JOYSTICK>
 8000a7c:	f7ff fdb4 	bl	80005e8 <Dechipher_JOYSTICK>
    if (joy == JOY_SELECT) {
 8000a80:	4d29      	ldr	r5, [pc, #164]	@ (8000b28 <main+0x2c4>)
 8000a82:	2800      	cmp	r0, #0
 8000a84:	d10a      	bne.n	8000a9c <main+0x238>
        buzzerSafetyCheck = 0;
 8000a86:	4b29      	ldr	r3, [pc, #164]	@ (8000b2c <main+0x2c8>)
 8000a88:	8018      	strh	r0, [r3, #0]
        buzzerSettingsMode = !buzzerSettingsMode;
 8000a8a:	782b      	ldrb	r3, [r5, #0]
        HAL_Delay(300);  // debounce — prevents immediate re-toggle
 8000a8c:	302d      	adds	r0, #45	@ 0x2d
        buzzerSettingsMode = !buzzerSettingsMode;
 8000a8e:	425a      	negs	r2, r3
 8000a90:	4153      	adcs	r3, r2
        HAL_Delay(300);  // debounce — prevents immediate re-toggle
 8000a92:	30ff      	adds	r0, #255	@ 0xff
        buzzerSettingsMode = !buzzerSettingsMode;
 8000a94:	b2db      	uxtb	r3, r3
 8000a96:	702b      	strb	r3, [r5, #0]
        HAL_Delay(300);  // debounce — prevents immediate re-toggle
 8000a98:	f000 fc12 	bl	80012c0 <HAL_Delay>
    if (buzzerSettingsMode) {
 8000a9c:	782b      	ldrb	r3, [r5, #0]
 8000a9e:	2b00      	cmp	r3, #0
 8000aa0:	d00e      	beq.n	8000ac0 <main+0x25c>
      handle_settings_mode();
 8000aa2:	f7ff fe41 	bl	8000728 <handle_settings_mode>
    HAL_Delay(50);
 8000aa6:	2032      	movs	r0, #50	@ 0x32
 8000aa8:	f000 fc0a 	bl	80012c0 <HAL_Delay>
  {
 8000aac:	e7df      	b.n	8000a6e <main+0x20a>
	  timestampToChar(avg_str, averages.averages[0]);
 8000aae:	4b20      	ldr	r3, [pc, #128]	@ (8000b30 <main+0x2cc>)
 8000ab0:	6859      	ldr	r1, [r3, #4]
 8000ab2:	f000 f9ef 	bl	8000e94 <timestampToChar>
	  timestampToChar(buzzer_str, beeper);
 8000ab6:	0030      	movs	r0, r6
 8000ab8:	6829      	ldr	r1, [r5, #0]
 8000aba:	f000 f9eb 	bl	8000e94 <timestampToChar>
 8000abe:	e7d5      	b.n	8000a6c <main+0x208>
      if (movement_state) {
 8000ac0:	7833      	ldrb	r3, [r6, #0]
 8000ac2:	2b00      	cmp	r3, #0
 8000ac4:	d002      	beq.n	8000acc <main+0x268>
        handle_movement();
 8000ac6:	f7ff fdad 	bl	8000624 <handle_movement>
 8000aca:	e7ec      	b.n	8000aa6 <main+0x242>
        handle_absence();
 8000acc:	f7ff fde4 	bl	8000698 <handle_absence>
 8000ad0:	e7e9      	b.n	8000aa6 <main+0x242>
 8000ad2:	46c0      	nop			@ (mov r8, r8)
 8000ad4:	40021000 	.word	0x40021000
 8000ad8:	10110000 	.word	0x10110000
 8000adc:	20000254 	.word	0x20000254
 8000ae0:	40005400 	.word	0x40005400
 8000ae4:	00402d41 	.word	0x00402d41
 8000ae8:	2000022c 	.word	0x2000022c
 8000aec:	40002800 	.word	0x40002800
 8000af0:	200001e0 	.word	0x200001e0
 8000af4:	40012c00 	.word	0x40012c00
 8000af8:	000003e7 	.word	0x000003e7
 8000afc:	00002edf 	.word	0x00002edf
 8000b00:	200002a8 	.word	0x200002a8
 8000b04:	40012400 	.word	0x40012400
 8000b08:	20000100 	.word	0x20000100
 8000b0c:	200001d2 	.word	0x200001d2
 8000b10:	20000000 	.word	0x20000000
 8000b14:	200000b8 	.word	0x200000b8
 8000b18:	200001c0 	.word	0x200001c0
 8000b1c:	200001c6 	.word	0x200001c6
 8000b20:	080039f3 	.word	0x080039f3
 8000b24:	200001dc 	.word	0x200001dc
 8000b28:	200001d6 	.word	0x200001d6
 8000b2c:	200001d4 	.word	0x200001d4
 8000b30:	200000b4 	.word	0x200000b4

08000b34 <Error_Handler>:
 8000b34:	b672      	cpsid	i
  while (1)
 8000b36:	e7fe      	b.n	8000b36 <Error_Handler+0x2>

08000b38 <HAL_MspInit>:

  /* USER CODE BEGIN MspInit 0 */

  /* USER CODE END MspInit 0 */

  __HAL_RCC_SYSCFG_CLK_ENABLE();
 8000b38:	2101      	movs	r1, #1
 8000b3a:	4b0a      	ldr	r3, [pc, #40]	@ (8000b64 <HAL_MspInit+0x2c>)
{
 8000b3c:	b082      	sub	sp, #8
  __HAL_RCC_SYSCFG_CLK_ENABLE();
 8000b3e:	6c1a      	ldr	r2, [r3, #64]	@ 0x40
 8000b40:	430a      	orrs	r2, r1
 8000b42:	641a      	str	r2, [r3, #64]	@ 0x40
 8000b44:	6c1a      	ldr	r2, [r3, #64]	@ 0x40
 8000b46:	400a      	ands	r2, r1
  __HAL_RCC_PWR_CLK_ENABLE();
 8000b48:	2180      	movs	r1, #128	@ 0x80
  __HAL_RCC_SYSCFG_CLK_ENABLE();
 8000b4a:	9200      	str	r2, [sp, #0]
 8000b4c:	9a00      	ldr	r2, [sp, #0]
  __HAL_RCC_PWR_CLK_ENABLE();
 8000b4e:	6bda      	ldr	r2, [r3, #60]	@ 0x3c
 8000b50:	0549      	lsls	r1, r1, #21
 8000b52:	430a      	orrs	r2, r1
 8000b54:	63da      	str	r2, [r3, #60]	@ 0x3c
 8000b56:	6bdb      	ldr	r3, [r3, #60]	@ 0x3c
 8000b58:	400b      	ands	r3, r1
 8000b5a:	9301      	str	r3, [sp, #4]
 8000b5c:	9b01      	ldr	r3, [sp, #4]
  /* System interrupt init*/

  /* USER CODE BEGIN MspInit 1 */

  /* USER CODE END MspInit 1 */
}
 8000b5e:	b002      	add	sp, #8
 8000b60:	4770      	bx	lr
 8000b62:	46c0      	nop			@ (mov r8, r8)
 8000b64:	40021000 	.word	0x40021000

08000b68 <HAL_ADC_MspInit>:
  * This function configures the hardware resources used in this example
  * @param hadc: ADC handle pointer
  * @retval None
  */
void HAL_ADC_MspInit(ADC_HandleTypeDef* hadc)
{
 8000b68:	b510      	push	{r4, lr}
 8000b6a:	0004      	movs	r4, r0
 8000b6c:	b08e      	sub	sp, #56	@ 0x38
  GPIO_InitTypeDef GPIO_InitStruct = {0};
 8000b6e:	2214      	movs	r2, #20
 8000b70:	2100      	movs	r1, #0
 8000b72:	a802      	add	r0, sp, #8
 8000b74:	f002 fa98 	bl	80030a8 <memset>
  RCC_PeriphCLKInitTypeDef PeriphClkInit = {0};
 8000b78:	221c      	movs	r2, #28
 8000b7a:	2100      	movs	r1, #0
 8000b7c:	a807      	add	r0, sp, #28
 8000b7e:	f002 fa93 	bl	80030a8 <memset>
  if(hadc->Instance==ADC1)
 8000b82:	4b1a      	ldr	r3, [pc, #104]	@ (8000bec <HAL_ADC_MspInit+0x84>)
 8000b84:	6822      	ldr	r2, [r4, #0]
 8000b86:	429a      	cmp	r2, r3
 8000b88:	d12e      	bne.n	8000be8 <HAL_ADC_MspInit+0x80>

    /* USER CODE END ADC1_MspInit 0 */

  /** Initializes the peripherals clocks
  */
    PeriphClkInit.PeriphClockSelection = RCC_PERIPHCLK_ADC;
 8000b8a:	2320      	movs	r3, #32
    PeriphClkInit.AdcClockSelection = RCC_ADCCLKSOURCE_SYSCLK;
    if (HAL_RCCEx_PeriphCLKConfig(&PeriphClkInit) != HAL_OK)
 8000b8c:	a807      	add	r0, sp, #28
    PeriphClkInit.PeriphClockSelection = RCC_PERIPHCLK_ADC;
 8000b8e:	9307      	str	r3, [sp, #28]
    if (HAL_RCCEx_PeriphCLKConfig(&PeriphClkInit) != HAL_OK)
 8000b90:	f001 fe6e 	bl	8002870 <HAL_RCCEx_PeriphCLKConfig>
 8000b94:	2800      	cmp	r0, #0
 8000b96:	d001      	beq.n	8000b9c <HAL_ADC_MspInit+0x34>
    {
      Error_Handler();
 8000b98:	f7ff ffcc 	bl	8000b34 <Error_Handler>
    }

    /* Peripheral clock enable */
    __HAL_RCC_ADC_CLK_ENABLE();
 8000b9c:	2180      	movs	r1, #128	@ 0x80
 8000b9e:	4b14      	ldr	r3, [pc, #80]	@ (8000bf0 <HAL_ADC_MspInit+0x88>)
 8000ba0:	0349      	lsls	r1, r1, #13
 8000ba2:	6c1a      	ldr	r2, [r3, #64]	@ 0x40
    PA8     ------> ADC1_IN8
    */
    GPIO_InitStruct.Pin = JOYSTICK_Pin;
    GPIO_InitStruct.Mode = GPIO_MODE_ANALOG;
    GPIO_InitStruct.Pull = GPIO_NOPULL;
    HAL_GPIO_Init(JOYSTICK_GPIO_Port, &GPIO_InitStruct);
 8000ba4:	20a0      	movs	r0, #160	@ 0xa0
    __HAL_RCC_ADC_CLK_ENABLE();
 8000ba6:	430a      	orrs	r2, r1
 8000ba8:	641a      	str	r2, [r3, #64]	@ 0x40
 8000baa:	6c1a      	ldr	r2, [r3, #64]	@ 0x40
    GPIO_InitStruct.Pull = GPIO_NOPULL;
 8000bac:	2400      	movs	r4, #0
    __HAL_RCC_ADC_CLK_ENABLE();
 8000bae:	400a      	ands	r2, r1
    __HAL_RCC_GPIOA_CLK_ENABLE();
 8000bb0:	2101      	movs	r1, #1
    __HAL_RCC_ADC_CLK_ENABLE();
 8000bb2:	9200      	str	r2, [sp, #0]
 8000bb4:	9a00      	ldr	r2, [sp, #0]
    __HAL_RCC_GPIOA_CLK_ENABLE();
 8000bb6:	6b5a      	ldr	r2, [r3, #52]	@ 0x34
    HAL_GPIO_Init(JOYSTICK_GPIO_Port, &GPIO_InitStruct);
 8000bb8:	05c0      	lsls	r0, r0, #23
    __HAL_RCC_GPIOA_CLK_ENABLE();
 8000bba:	430a      	orrs	r2, r1
 8000bbc:	635a      	str	r2, [r3, #52]	@ 0x34
 8000bbe:	6b5b      	ldr	r3, [r3, #52]	@ 0x34
    GPIO_InitStruct.Pull = GPIO_NOPULL;
 8000bc0:	9404      	str	r4, [sp, #16]
    __HAL_RCC_GPIOA_CLK_ENABLE();
 8000bc2:	400b      	ands	r3, r1
 8000bc4:	9301      	str	r3, [sp, #4]
 8000bc6:	9b01      	ldr	r3, [sp, #4]
    GPIO_InitStruct.Pin = JOYSTICK_Pin;
 8000bc8:	2380      	movs	r3, #128	@ 0x80
 8000bca:	005b      	lsls	r3, r3, #1
 8000bcc:	9302      	str	r3, [sp, #8]
    HAL_GPIO_Init(JOYSTICK_GPIO_Port, &GPIO_InitStruct);
 8000bce:	a902      	add	r1, sp, #8
    GPIO_InitStruct.Mode = GPIO_MODE_ANALOG;
 8000bd0:	3bfd      	subs	r3, #253	@ 0xfd
 8000bd2:	9303      	str	r3, [sp, #12]
    HAL_GPIO_Init(JOYSTICK_GPIO_Port, &GPIO_InitStruct);
 8000bd4:	f001 f8ac 	bl	8001d30 <HAL_GPIO_Init>

    /* ADC1 interrupt Init */
    HAL_NVIC_SetPriority(ADC1_IRQn, 0, 0);
 8000bd8:	200c      	movs	r0, #12
 8000bda:	0022      	movs	r2, r4
 8000bdc:	0021      	movs	r1, r4
 8000bde:	f000 ff7f 	bl	8001ae0 <HAL_NVIC_SetPriority>
    HAL_NVIC_EnableIRQ(ADC1_IRQn);
 8000be2:	200c      	movs	r0, #12
 8000be4:	f000 ffa6 	bl	8001b34 <HAL_NVIC_EnableIRQ>

    /* USER CODE END ADC1_MspInit 1 */

  }

}
 8000be8:	b00e      	add	sp, #56	@ 0x38
 8000bea:	bd10      	pop	{r4, pc}
 8000bec:	40012400 	.word	0x40012400
 8000bf0:	40021000 	.word	0x40021000

08000bf4 <HAL_I2C_MspInit>:
  * This function configures the hardware resources used in this example
  * @param hi2c: I2C handle pointer
  * @retval None
  */
void HAL_I2C_MspInit(I2C_HandleTypeDef* hi2c)
{
 8000bf4:	b5f0      	push	{r4, r5, r6, r7, lr}
 8000bf6:	0004      	movs	r4, r0
 8000bf8:	b091      	sub	sp, #68	@ 0x44
  GPIO_InitTypeDef GPIO_InitStruct = {0};
 8000bfa:	2214      	movs	r2, #20
 8000bfc:	2100      	movs	r1, #0
 8000bfe:	a804      	add	r0, sp, #16
 8000c00:	f002 fa52 	bl	80030a8 <memset>
  RCC_PeriphCLKInitTypeDef PeriphClkInit = {0};
 8000c04:	221c      	movs	r2, #28
 8000c06:	2100      	movs	r1, #0
 8000c08:	a809      	add	r0, sp, #36	@ 0x24
 8000c0a:	f002 fa4d 	bl	80030a8 <memset>
  if(hi2c->Instance==I2C1)
 8000c0e:	4b21      	ldr	r3, [pc, #132]	@ (8000c94 <HAL_I2C_MspInit+0xa0>)
 8000c10:	6822      	ldr	r2, [r4, #0]
 8000c12:	429a      	cmp	r2, r3
 8000c14:	d13b      	bne.n	8000c8e <HAL_I2C_MspInit+0x9a>

    /* USER CODE END I2C1_MspInit 0 */

  /** Initializes the peripherals clocks
  */
    PeriphClkInit.PeriphClockSelection = RCC_PERIPHCLK_I2C1;
 8000c16:	2502      	movs	r5, #2
    PeriphClkInit.I2c1ClockSelection = RCC_I2C1CLKSOURCE_PCLK1;
    if (HAL_RCCEx_PeriphCLKConfig(&PeriphClkInit) != HAL_OK)
 8000c18:	a809      	add	r0, sp, #36	@ 0x24
    PeriphClkInit.PeriphClockSelection = RCC_PERIPHCLK_I2C1;
 8000c1a:	9509      	str	r5, [sp, #36]	@ 0x24
    if (HAL_RCCEx_PeriphCLKConfig(&PeriphClkInit) != HAL_OK)
 8000c1c:	f001 fe28 	bl	8002870 <HAL_RCCEx_PeriphCLKConfig>
 8000c20:	2800      	cmp	r0, #0
 8000c22:	d001      	beq.n	8000c28 <HAL_I2C_MspInit+0x34>
    {
      Error_Handler();
 8000c24:	f7ff ff86 	bl	8000b34 <Error_Handler>
    }

    __HAL_RCC_GPIOB_CLK_ENABLE();
    __HAL_RCC_GPIOC_CLK_ENABLE();
 8000c28:	2204      	movs	r2, #4
    __HAL_RCC_GPIOB_CLK_ENABLE();
 8000c2a:	4c1b      	ldr	r4, [pc, #108]	@ (8000c98 <HAL_I2C_MspInit+0xa4>)
    /**I2C1 GPIO Configuration
    PB7     ------> I2C1_SCL
    PC14-OSCX_IN (PC14)     ------> I2C1_SDA
    */
    GPIO_InitStruct.Pin = GPIO_PIN_7;
    GPIO_InitStruct.Mode = GPIO_MODE_AF_OD;
 8000c2c:	2712      	movs	r7, #18
    __HAL_RCC_GPIOB_CLK_ENABLE();
 8000c2e:	6b63      	ldr	r3, [r4, #52]	@ 0x34
    GPIO_InitStruct.Pull = GPIO_PULLUP;
 8000c30:	2601      	movs	r6, #1
    __HAL_RCC_GPIOB_CLK_ENABLE();
 8000c32:	432b      	orrs	r3, r5
 8000c34:	6363      	str	r3, [r4, #52]	@ 0x34
 8000c36:	6b63      	ldr	r3, [r4, #52]	@ 0x34
    GPIO_InitStruct.Speed = GPIO_SPEED_FREQ_LOW;
    GPIO_InitStruct.Alternate = GPIO_AF14_I2C1;
    HAL_GPIO_Init(GPIOB, &GPIO_InitStruct);
 8000c38:	4818      	ldr	r0, [pc, #96]	@ (8000c9c <HAL_I2C_MspInit+0xa8>)
    __HAL_RCC_GPIOB_CLK_ENABLE();
 8000c3a:	402b      	ands	r3, r5
 8000c3c:	9301      	str	r3, [sp, #4]
 8000c3e:	9b01      	ldr	r3, [sp, #4]
    __HAL_RCC_GPIOC_CLK_ENABLE();
 8000c40:	6b63      	ldr	r3, [r4, #52]	@ 0x34
    GPIO_InitStruct.Speed = GPIO_SPEED_FREQ_LOW;
 8000c42:	2500      	movs	r5, #0
    __HAL_RCC_GPIOC_CLK_ENABLE();
 8000c44:	4313      	orrs	r3, r2
 8000c46:	6363      	str	r3, [r4, #52]	@ 0x34
 8000c48:	6b63      	ldr	r3, [r4, #52]	@ 0x34
    HAL_GPIO_Init(GPIOB, &GPIO_InitStruct);
 8000c4a:	a904      	add	r1, sp, #16
    __HAL_RCC_GPIOC_CLK_ENABLE();
 8000c4c:	4013      	ands	r3, r2
 8000c4e:	9302      	str	r3, [sp, #8]
 8000c50:	9b02      	ldr	r3, [sp, #8]
    GPIO_InitStruct.Pin = GPIO_PIN_7;
 8000c52:	2380      	movs	r3, #128	@ 0x80
 8000c54:	9304      	str	r3, [sp, #16]
    GPIO_InitStruct.Alternate = GPIO_AF14_I2C1;
 8000c56:	3b72      	subs	r3, #114	@ 0x72
 8000c58:	9308      	str	r3, [sp, #32]
    GPIO_InitStruct.Mode = GPIO_MODE_AF_OD;
 8000c5a:	9705      	str	r7, [sp, #20]
    GPIO_InitStruct.Pull = GPIO_PULLUP;
 8000c5c:	9606      	str	r6, [sp, #24]
    GPIO_InitStruct.Speed = GPIO_SPEED_FREQ_LOW;
 8000c5e:	9507      	str	r5, [sp, #28]
    HAL_GPIO_Init(GPIOB, &GPIO_InitStruct);
 8000c60:	f001 f866 	bl	8001d30 <HAL_GPIO_Init>

    GPIO_InitStruct.Pin = GPIO_PIN_14;
 8000c64:	2380      	movs	r3, #128	@ 0x80
 8000c66:	01db      	lsls	r3, r3, #7
 8000c68:	9304      	str	r3, [sp, #16]
    GPIO_InitStruct.Mode = GPIO_MODE_AF_OD;
    GPIO_InitStruct.Pull = GPIO_PULLUP;
    GPIO_InitStruct.Speed = GPIO_SPEED_FREQ_LOW;
    GPIO_InitStruct.Alternate = GPIO_AF14_I2C1;
 8000c6a:	230e      	movs	r3, #14
    HAL_GPIO_Init(GPIOC, &GPIO_InitStruct);
 8000c6c:	480c      	ldr	r0, [pc, #48]	@ (8000ca0 <HAL_I2C_MspInit+0xac>)
 8000c6e:	a904      	add	r1, sp, #16
    GPIO_InitStruct.Alternate = GPIO_AF14_I2C1;
 8000c70:	9308      	str	r3, [sp, #32]
    GPIO_InitStruct.Mode = GPIO_MODE_AF_OD;
 8000c72:	9705      	str	r7, [sp, #20]
    GPIO_InitStruct.Pull = GPIO_PULLUP;
 8000c74:	9606      	str	r6, [sp, #24]
    GPIO_InitStruct.Speed = GPIO_SPEED_FREQ_LOW;
 8000c76:	9507      	str	r5, [sp, #28]
    HAL_GPIO_Init(GPIOC, &GPIO_InitStruct);
 8000c78:	f001 f85a 	bl	8001d30 <HAL_GPIO_Init>

    /* Peripheral clock enable */
    __HAL_RCC_I2C1_CLK_ENABLE();
 8000c7c:	2280      	movs	r2, #128	@ 0x80
 8000c7e:	6be3      	ldr	r3, [r4, #60]	@ 0x3c
 8000c80:	0392      	lsls	r2, r2, #14
 8000c82:	4313      	orrs	r3, r2
 8000c84:	63e3      	str	r3, [r4, #60]	@ 0x3c
 8000c86:	6be3      	ldr	r3, [r4, #60]	@ 0x3c
 8000c88:	4013      	ands	r3, r2
 8000c8a:	9303      	str	r3, [sp, #12]
 8000c8c:	9b03      	ldr	r3, [sp, #12]

    /* USER CODE END I2C1_MspInit 1 */

  }

}
 8000c8e:	b011      	add	sp, #68	@ 0x44
 8000c90:	bdf0      	pop	{r4, r5, r6, r7, pc}
 8000c92:	46c0      	nop			@ (mov r8, r8)
 8000c94:	40005400 	.word	0x40005400
 8000c98:	40021000 	.word	0x40021000
 8000c9c:	50000400 	.word	0x50000400
 8000ca0:	50000800 	.word	0x50000800

08000ca4 <HAL_RTC_MspInit>:
  * This function configures the hardware resources used in this example
  * @param hrtc: RTC handle pointer
  * @retval None
  */
void HAL_RTC_MspInit(RTC_HandleTypeDef* hrtc)
{
 8000ca4:	b510      	push	{r4, lr}
 8000ca6:	0004      	movs	r4, r0
 8000ca8:	b088      	sub	sp, #32
  RCC_PeriphCLKInitTypeDef PeriphClkInit = {0};
 8000caa:	221c      	movs	r2, #28
 8000cac:	2100      	movs	r1, #0
 8000cae:	a801      	add	r0, sp, #4
 8000cb0:	f002 f9fa 	bl	80030a8 <memset>
  if(hrtc->Instance==RTC)
 8000cb4:	4b10      	ldr	r3, [pc, #64]	@ (8000cf8 <HAL_RTC_MspInit+0x54>)
 8000cb6:	6822      	ldr	r2, [r4, #0]
 8000cb8:	429a      	cmp	r2, r3
 8000cba:	d11a      	bne.n	8000cf2 <HAL_RTC_MspInit+0x4e>

    /* USER CODE END RTC_MspInit 0 */

  /** Initializes the peripherals clocks
  */
    PeriphClkInit.PeriphClockSelection = RCC_PERIPHCLK_RTC;
 8000cbc:	2340      	movs	r3, #64	@ 0x40
 8000cbe:	9301      	str	r3, [sp, #4]
    PeriphClkInit.RTCClockSelection = RCC_RTCCLKSOURCE_LSI;
 8000cc0:	33c1      	adds	r3, #193	@ 0xc1
 8000cc2:	33ff      	adds	r3, #255	@ 0xff
    if (HAL_RCCEx_PeriphCLKConfig(&PeriphClkInit) != HAL_OK)
 8000cc4:	a801      	add	r0, sp, #4
    PeriphClkInit.RTCClockSelection = RCC_RTCCLKSOURCE_LSI;
 8000cc6:	9307      	str	r3, [sp, #28]
    if (HAL_RCCEx_PeriphCLKConfig(&PeriphClkInit) != HAL_OK)
 8000cc8:	f001 fdd2 	bl	8002870 <HAL_RCCEx_PeriphCLKConfig>
 8000ccc:	2800      	cmp	r0, #0
 8000cce:	d001      	beq.n	8000cd4 <HAL_RTC_MspInit+0x30>
    {
      Error_Handler();
 8000cd0:	f7ff ff30 	bl	8000b34 <Error_Handler>
    }

    /* Peripheral clock enable */
    __HAL_RCC_RTC_ENABLE();
 8000cd4:	2280      	movs	r2, #128	@ 0x80
 8000cd6:	4b09      	ldr	r3, [pc, #36]	@ (8000cfc <HAL_RTC_MspInit+0x58>)
 8000cd8:	0212      	lsls	r2, r2, #8
 8000cda:	6dd9      	ldr	r1, [r3, #92]	@ 0x5c
 8000cdc:	430a      	orrs	r2, r1
    __HAL_RCC_RTCAPB_CLK_ENABLE();
 8000cde:	2180      	movs	r1, #128	@ 0x80
    __HAL_RCC_RTC_ENABLE();
 8000ce0:	65da      	str	r2, [r3, #92]	@ 0x5c
    __HAL_RCC_RTCAPB_CLK_ENABLE();
 8000ce2:	6bda      	ldr	r2, [r3, #60]	@ 0x3c
 8000ce4:	00c9      	lsls	r1, r1, #3
 8000ce6:	430a      	orrs	r2, r1
 8000ce8:	63da      	str	r2, [r3, #60]	@ 0x3c
 8000cea:	6bdb      	ldr	r3, [r3, #60]	@ 0x3c
 8000cec:	400b      	ands	r3, r1
 8000cee:	9300      	str	r3, [sp, #0]
 8000cf0:	9b00      	ldr	r3, [sp, #0]

    /* USER CODE END RTC_MspInit 1 */

  }

}
 8000cf2:	b008      	add	sp, #32
 8000cf4:	bd10      	pop	{r4, pc}
 8000cf6:	46c0      	nop			@ (mov r8, r8)
 8000cf8:	40002800 	.word	0x40002800
 8000cfc:	40021000 	.word	0x40021000

08000d00 <HAL_TIM_Base_MspInit>:
  * This function configures the hardware resources used in this example
  * @param htim_base: TIM_Base handle pointer
  * @retval None
  */
void HAL_TIM_Base_MspInit(TIM_HandleTypeDef* htim_base)
{
 8000d00:	b507      	push	{r0, r1, r2, lr}
  if(htim_base->Instance==TIM1)
 8000d02:	4b0b      	ldr	r3, [pc, #44]	@ (8000d30 <HAL_TIM_Base_MspInit+0x30>)
 8000d04:	6802      	ldr	r2, [r0, #0]
 8000d06:	429a      	cmp	r2, r3
 8000d08:	d111      	bne.n	8000d2e <HAL_TIM_Base_MspInit+0x2e>
  {
    /* USER CODE BEGIN TIM1_MspInit 0 */

    /* USER CODE END TIM1_MspInit 0 */
    /* Peripheral clock enable */
    __HAL_RCC_TIM1_CLK_ENABLE();
 8000d0a:	2180      	movs	r1, #128	@ 0x80
 8000d0c:	4b09      	ldr	r3, [pc, #36]	@ (8000d34 <HAL_TIM_Base_MspInit+0x34>)
 8000d0e:	0109      	lsls	r1, r1, #4
 8000d10:	6c1a      	ldr	r2, [r3, #64]	@ 0x40
    /* TIM1 interrupt Init */
    HAL_NVIC_SetPriority(TIM1_BRK_UP_TRG_COM_IRQn, 0, 0);
 8000d12:	200d      	movs	r0, #13
    __HAL_RCC_TIM1_CLK_ENABLE();
 8000d14:	430a      	orrs	r2, r1
 8000d16:	641a      	str	r2, [r3, #64]	@ 0x40
    HAL_NVIC_SetPriority(TIM1_BRK_UP_TRG_COM_IRQn, 0, 0);
 8000d18:	2200      	movs	r2, #0
    __HAL_RCC_TIM1_CLK_ENABLE();
 8000d1a:	6c1b      	ldr	r3, [r3, #64]	@ 0x40
 8000d1c:	400b      	ands	r3, r1
 8000d1e:	9301      	str	r3, [sp, #4]
    HAL_NVIC_SetPriority(TIM1_BRK_UP_TRG_COM_IRQn, 0, 0);
 8000d20:	0011      	movs	r1, r2
    __HAL_RCC_TIM1_CLK_ENABLE();
 8000d22:	9b01      	ldr	r3, [sp, #4]
    HAL_NVIC_SetPriority(TIM1_BRK_UP_TRG_COM_IRQn, 0, 0);
 8000d24:	f000 fedc 	bl	8001ae0 <HAL_NVIC_SetPriority>
    HAL_NVIC_EnableIRQ(TIM1_BRK_UP_TRG_COM_IRQn);
 8000d28:	200d      	movs	r0, #13
 8000d2a:	f000 ff03 	bl	8001b34 <HAL_NVIC_EnableIRQ>

    /* USER CODE END TIM1_MspInit 1 */

  }

}
 8000d2e:	bd07      	pop	{r0, r1, r2, pc}
 8000d30:	40012c00 	.word	0x40012c00
 8000d34:	40021000 	.word	0x40021000

08000d38 <NMI_Handler>:
{
  /* USER CODE BEGIN NonMaskableInt_IRQn 0 */

  /* USER CODE END NonMaskableInt_IRQn 0 */
  /* USER CODE BEGIN NonMaskableInt_IRQn 1 */
   while (1)
 8000d38:	e7fe      	b.n	8000d38 <NMI_Handler>

08000d3a <HardFault_Handler>:
void HardFault_Handler(void)
{
  /* USER CODE BEGIN HardFault_IRQn 0 */

  /* USER CODE END HardFault_IRQn 0 */
  while (1)
 8000d3a:	e7fe      	b.n	8000d3a <HardFault_Handler>

08000d3c <SVC_Handler>:

  /* USER CODE END SVC_IRQn 0 */
  /* USER CODE BEGIN SVC_IRQn 1 */

  /* USER CODE END SVC_IRQn 1 */
}
 8000d3c:	4770      	bx	lr

08000d3e <PendSV_Handler>:

/**
  * @brief This function handles Pendable request for system service.
  */
void PendSV_Handler(void)
 8000d3e:	4770      	bx	lr

08000d40 <SysTick_Handler>:

/**
  * @brief This function handles System tick timer.
  */
void SysTick_Handler(void)
{
 8000d40:	b510      	push	{r4, lr}
  /* USER CODE BEGIN SysTick_IRQn 0 */

  /* USER CODE END SysTick_IRQn 0 */
  HAL_IncTick();
 8000d42:	f000 faab 	bl	800129c <HAL_IncTick>
  /* USER CODE BEGIN SysTick_IRQn 1 */

  /* USER CODE END SysTick_IRQn 1 */
}
 8000d46:	bd10      	pop	{r4, pc}

08000d48 <EXTI4_15_IRQHandler>:
void EXTI4_15_IRQHandler(void)
{
  /* USER CODE BEGIN EXTI4_15_IRQn 0 */

  /* USER CODE END EXTI4_15_IRQn 0 */
  HAL_GPIO_EXTI_IRQHandler(INFRARED_Pin);
 8000d48:	2080      	movs	r0, #128	@ 0x80
{
 8000d4a:	b510      	push	{r4, lr}
  HAL_GPIO_EXTI_IRQHandler(INFRARED_Pin);
 8000d4c:	0140      	lsls	r0, r0, #5
 8000d4e:	f001 f8a5 	bl	8001e9c <HAL_GPIO_EXTI_IRQHandler>
  /* USER CODE BEGIN EXTI4_15_IRQn 1 */

  /* USER CODE END EXTI4_15_IRQn 1 */
}
 8000d52:	bd10      	pop	{r4, pc}

08000d54 <ADC1_IRQHandler>:

/**
  * @brief This function handles ADC1 interrupt.
  */
void ADC1_IRQHandler(void)
{
 8000d54:	b510      	push	{r4, lr}
  /* USER CODE BEGIN ADC1_IRQn 0 */

  /* USER CODE END ADC1_IRQn 0 */
  HAL_ADC_IRQHandler(&hadc1);
 8000d56:	4802      	ldr	r0, [pc, #8]	@ (8000d60 <ADC1_IRQHandler+0xc>)
 8000d58:	f000 fc48 	bl	80015ec <HAL_ADC_IRQHandler>
  /* USER CODE BEGIN ADC1_IRQn 1 */

  /* USER CODE END ADC1_IRQn 1 */
}
 8000d5c:	bd10      	pop	{r4, pc}
 8000d5e:	46c0      	nop			@ (mov r8, r8)
 8000d60:	200002a8 	.word	0x200002a8

08000d64 <TIM1_BRK_UP_TRG_COM_IRQHandler>:

/**
  * @brief This function handles TIM1 break, update, trigger and commutation interrupts.
  */
void TIM1_BRK_UP_TRG_COM_IRQHandler(void)
{
 8000d64:	b510      	push	{r4, lr}
  /* USER CODE BEGIN TIM1_BRK_UP_TRG_COM_IRQn 0 */

  /* USER CODE END TIM1_BRK_UP_TRG_COM_IRQn 0 */
  HAL_TIM_IRQHandler(&htim1);
 8000d66:	4802      	ldr	r0, [pc, #8]	@ (8000d70 <TIM1_BRK_UP_TRG_COM_IRQHandler+0xc>)
 8000d68:	f001 fefc 	bl	8002b64 <HAL_TIM_IRQHandler>
  /* USER CODE BEGIN TIM1_BRK_UP_TRG_COM_IRQn 1 */

  /* USER CODE END TIM1_BRK_UP_TRG_COM_IRQn 1 */
}
 8000d6c:	bd10      	pop	{r4, pc}
 8000d6e:	46c0      	nop			@ (mov r8, r8)
 8000d70:	200001e0 	.word	0x200001e0

08000d74 <__load_fromFlash>:
 *      Author: nhrob
 */

#include "storage.h"

int __load_fromFlash(uint32_t* averages, uint32_t* beeper) {
 8000d74:	b510      	push	{r4, lr}
 8000d76:	000c      	movs	r4, r1
  if (stored_avgs[0] != 0xFFFFFFFF) {
 8000d78:	4908      	ldr	r1, [pc, #32]	@ (8000d9c <__load_fromFlash+0x28>)
	  memcpy(averages, stored_avgs, AVERAGE_COUNT * sizeof(uint32_t));  // 256 bytes
	  memcpy(beeper, (const uint32_t *)BEEPER_STORAGE_ADDR, sizeof(uint32_t));
    return 1;
  }
  return 0;
 8000d7a:	2300      	movs	r3, #0
  if (stored_avgs[0] != 0xFFFFFFFF) {
 8000d7c:	680a      	ldr	r2, [r1, #0]
 8000d7e:	3201      	adds	r2, #1
 8000d80:	d009      	beq.n	8000d96 <__load_fromFlash+0x22>
	  memcpy(averages, stored_avgs, AVERAGE_COUNT * sizeof(uint32_t));  // 256 bytes
 8000d82:	2280      	movs	r2, #128	@ 0x80
 8000d84:	0052      	lsls	r2, r2, #1
 8000d86:	f002 f9cb 	bl	8003120 <memcpy>
	  memcpy(beeper, (const uint32_t *)BEEPER_STORAGE_ADDR, sizeof(uint32_t));
 8000d8a:	2204      	movs	r2, #4
 8000d8c:	0020      	movs	r0, r4
 8000d8e:	4904      	ldr	r1, [pc, #16]	@ (8000da0 <__load_fromFlash+0x2c>)
 8000d90:	f002 f9c6 	bl	8003120 <memcpy>
    return 1;
 8000d94:	2301      	movs	r3, #1
}
 8000d96:	0018      	movs	r0, r3
 8000d98:	bd10      	pop	{r4, pc}
 8000d9a:	46c0      	nop			@ (mov r8, r8)
 8000d9c:	08007800 	.word	0x08007800
 8000da0:	08007900 	.word	0x08007900

08000da4 <__flash_store>:

HAL_StatusTypeDef __flash_store(uint32_t* averages, uint32_t count, uint32_t* beeper) {
 8000da4:	b5f0      	push	{r4, r5, r6, r7, lr}
 8000da6:	b085      	sub	sp, #20
 8000da8:	0016      	movs	r6, r2
 8000daa:	0004      	movs	r4, r0
  HAL_StatusTypeDef status;

  HAL_FLASH_Unlock();
 8000dac:	f000 fee8 	bl	8001b80 <HAL_FLASH_Unlock>

  FLASH_EraseInitTypeDef erase = {
 8000db0:	a801      	add	r0, sp, #4
 8000db2:	0002      	movs	r2, r0
 8000db4:	4b12      	ldr	r3, [pc, #72]	@ (8000e00 <__flash_store+0x5c>)
 8000db6:	cba2      	ldmia	r3!, {r1, r5, r7}
 8000db8:	c2a2      	stmia	r2!, {r1, r5, r7}
    .TypeErase = FLASH_TYPEERASE_PAGES,
    .Page      = 15,
    .NbPages   = 1
  };

  uint32_t pageError = 0;
 8000dba:	2300      	movs	r3, #0
  status = HAL_FLASHEx_Erase(&erase, &pageError);
 8000dbc:	4669      	mov	r1, sp
  uint32_t pageError = 0;
 8000dbe:	9300      	str	r3, [sp, #0]
  status = HAL_FLASHEx_Erase(&erase, &pageError);
 8000dc0:	f000 ff6e 	bl	8001ca0 <HAL_FLASHEx_Erase>
 8000dc4:	1e05      	subs	r5, r0, #0
  if (status != HAL_OK) {
 8000dc6:	d004      	beq.n	8000dd2 <__flash_store+0x2e>
    addr += 8; //Increment address by 8
  }
  
  status = HAL_FLASH_Program(FLASH_TYPEPROGRAM_DOUBLEWORD, addr, (uint64_t)(*beeper));

  HAL_FLASH_Lock();
 8000dc8:	f000 feec 	bl	8001ba4 <HAL_FLASH_Lock>
  return status;
}
 8000dcc:	0028      	movs	r0, r5
 8000dce:	b005      	add	sp, #20
 8000dd0:	bdf0      	pop	{r4, r5, r6, r7, pc}
  uint32_t addr = STORAGE_START_ADDR; //Set to starting address of the block
 8000dd2:	4d0c      	ldr	r5, [pc, #48]	@ (8000e04 <__flash_store+0x60>)
    status = HAL_FLASH_Program(FLASH_TYPEPROGRAM_DOUBLEWORD, addr, double_word);
 8000dd4:	0029      	movs	r1, r5
 8000dd6:	2001      	movs	r0, #1
    uint64_t double_word = (uint64_t)averages[i] | ((uint64_t)averages[i + 1] << 32);
 8000dd8:	6863      	ldr	r3, [r4, #4]
 8000dda:	6822      	ldr	r2, [r4, #0]
    status = HAL_FLASH_Program(FLASH_TYPEPROGRAM_DOUBLEWORD, addr, double_word);
 8000ddc:	f000 ff1e 	bl	8001c1c <HAL_FLASH_Program>
    if (status != HAL_OK) break;
 8000de0:	2800      	cmp	r0, #0
 8000de2:	d104      	bne.n	8000dee <__flash_store+0x4a>
  for (int i = 0; i < AVERAGE_COUNT; i += 2) {
 8000de4:	4b08      	ldr	r3, [pc, #32]	@ (8000e08 <__flash_store+0x64>)
    addr += 8; //Increment address by 8
 8000de6:	3508      	adds	r5, #8
  for (int i = 0; i < AVERAGE_COUNT; i += 2) {
 8000de8:	3408      	adds	r4, #8
 8000dea:	429d      	cmp	r5, r3
 8000dec:	d1f2      	bne.n	8000dd4 <__flash_store+0x30>
  status = HAL_FLASH_Program(FLASH_TYPEPROGRAM_DOUBLEWORD, addr, (uint64_t)(*beeper));
 8000dee:	0029      	movs	r1, r5
 8000df0:	2300      	movs	r3, #0
 8000df2:	2001      	movs	r0, #1
 8000df4:	6832      	ldr	r2, [r6, #0]
 8000df6:	f000 ff11 	bl	8001c1c <HAL_FLASH_Program>
 8000dfa:	0005      	movs	r5, r0
 8000dfc:	e7e4      	b.n	8000dc8 <__flash_store+0x24>
 8000dfe:	46c0      	nop			@ (mov r8, r8)
 8000e00:	080039d8 	.word	0x080039d8
 8000e04:	08007800 	.word	0x08007800
 8000e08:	08007900 	.word	0x08007900

08000e0c <_sbrk>:
void *_sbrk(ptrdiff_t incr)
{
  extern uint8_t _end; /* Symbol defined in the linker script */
  extern uint8_t _estack; /* Symbol defined in the linker script */
  extern uint32_t _Min_Stack_Size; /* Symbol defined in the linker script */
  const uint32_t stack_limit = (uint32_t)&_estack - (uint32_t)&_Min_Stack_Size;
 8000e0c:	490b      	ldr	r1, [pc, #44]	@ (8000e3c <_sbrk+0x30>)
 8000e0e:	4a0c      	ldr	r2, [pc, #48]	@ (8000e40 <_sbrk+0x34>)
{
 8000e10:	0003      	movs	r3, r0
  const uint32_t stack_limit = (uint32_t)&_estack - (uint32_t)&_Min_Stack_Size;
 8000e12:	1a52      	subs	r2, r2, r1
  const uint8_t *max_heap = (uint8_t *)stack_limit;
  uint8_t *prev_heap_end;

  /* Initialize heap end at first call */
  if (NULL == __sbrk_heap_end)
 8000e14:	490b      	ldr	r1, [pc, #44]	@ (8000e44 <_sbrk+0x38>)
{
 8000e16:	b510      	push	{r4, lr}
  if (NULL == __sbrk_heap_end)
 8000e18:	6808      	ldr	r0, [r1, #0]
 8000e1a:	2800      	cmp	r0, #0
 8000e1c:	d101      	bne.n	8000e22 <_sbrk+0x16>
  {
    __sbrk_heap_end = &_end;
 8000e1e:	480a      	ldr	r0, [pc, #40]	@ (8000e48 <_sbrk+0x3c>)
 8000e20:	6008      	str	r0, [r1, #0]
  }

  /* Protect heap from growing into the reserved MSP stack */
  if (__sbrk_heap_end + incr > max_heap)
 8000e22:	6808      	ldr	r0, [r1, #0]
 8000e24:	18c3      	adds	r3, r0, r3
 8000e26:	4293      	cmp	r3, r2
 8000e28:	d906      	bls.n	8000e38 <_sbrk+0x2c>
  {
    errno = ENOMEM;
 8000e2a:	f002 f945 	bl	80030b8 <__errno>
 8000e2e:	230c      	movs	r3, #12
 8000e30:	6003      	str	r3, [r0, #0]
    return (void *)-1;
 8000e32:	2001      	movs	r0, #1
 8000e34:	4240      	negs	r0, r0

  prev_heap_end = __sbrk_heap_end;
  __sbrk_heap_end += incr;

  return (void *)prev_heap_end;
}
 8000e36:	bd10      	pop	{r4, pc}
  __sbrk_heap_end += incr;
 8000e38:	600b      	str	r3, [r1, #0]
  return (void *)prev_heap_end;
 8000e3a:	e7fc      	b.n	8000e36 <_sbrk+0x2a>
 8000e3c:	00000400 	.word	0x00000400
 8000e40:	20001800 	.word	0x20001800
 8000e44:	2000030c 	.word	0x2000030c
 8000e48:	20000880 	.word	0x20000880

08000e4c <SystemInit>:
  
  /* Configure the Vector Table location add offset address ------------------*/
#ifdef VECT_TAB_SRAM
  SCB->VTOR = SRAM_BASE | VECT_TAB_OFFSET; /* Vector Table Relocation in Internal SRAM */
#else
  SCB->VTOR = FLASH_BASE | VECT_TAB_OFFSET; /* Vector Table Relocation in Internal FLASH */
 8000e4c:	2280      	movs	r2, #128	@ 0x80
 8000e4e:	4b02      	ldr	r3, [pc, #8]	@ (8000e58 <SystemInit+0xc>)
 8000e50:	0512      	lsls	r2, r2, #20
 8000e52:	609a      	str	r2, [r3, #8]
#endif
}
 8000e54:	4770      	bx	lr
 8000e56:	46c0      	nop			@ (mov r8, r8)
 8000e58:	e000ed00 	.word	0xe000ed00

08000e5c <getHoursMins>:
  getHoursMins(&hours, &minutes, (uint32_t)timestamp);

  sprintf(str, "%02d:%02d", hours, minutes);
}

void getHoursMins(uint8_t* hours8b, uint8_t* mins8b, uint32_t timestamp) {
 8000e5c:	b5f7      	push	{r0, r1, r2, r4, r5, r6, r7, lr}
 8000e5e:	0007      	movs	r7, r0
 8000e60:	9101      	str	r1, [sp, #4]
  int32_t minutes = timestamp / 60;
 8000e62:	0010      	movs	r0, r2
 8000e64:	213c      	movs	r1, #60	@ 0x3c
void getHoursMins(uint8_t* hours8b, uint8_t* mins8b, uint32_t timestamp) {
 8000e66:	0015      	movs	r5, r2
  int32_t minutes = timestamp / 60;
 8000e68:	f7ff f962 	bl	8000130 <__udivsi3>
  int32_t hours = minutes / 60;
  
  minutes = minutes % 60;
 8000e6c:	213c      	movs	r1, #60	@ 0x3c
  int32_t minutes = timestamp / 60;
 8000e6e:	0004      	movs	r4, r0
  minutes = minutes % 60;
 8000e70:	f7ff face 	bl	8000410 <__aeabi_idivmod>

  if (hours > 99) {
 8000e74:	4b06      	ldr	r3, [pc, #24]	@ (8000e90 <getHoursMins+0x34>)
  minutes = minutes % 60;
 8000e76:	000e      	movs	r6, r1
    hours = 0;
 8000e78:	2000      	movs	r0, #0
  if (hours > 99) {
 8000e7a:	429d      	cmp	r5, r3
 8000e7c:	d803      	bhi.n	8000e86 <getHoursMins+0x2a>
  int32_t hours = minutes / 60;
 8000e7e:	213c      	movs	r1, #60	@ 0x3c
 8000e80:	0020      	movs	r0, r4
 8000e82:	f7ff f9df 	bl	8000244 <__divsi3>
  }
  
  *hours8b = ((uint8_t)hours);
  *mins8b  = ((uint8_t)minutes);
 8000e86:	9b01      	ldr	r3, [sp, #4]
  *hours8b = ((uint8_t)hours);
 8000e88:	7038      	strb	r0, [r7, #0]
  *mins8b  = ((uint8_t)minutes);
 8000e8a:	701e      	strb	r6, [r3, #0]
}
 8000e8c:	bdf7      	pop	{r0, r1, r2, r4, r5, r6, r7, pc}
 8000e8e:	46c0      	nop			@ (mov r8, r8)
 8000e90:	00057e3f 	.word	0x00057e3f

08000e94 <timestampToChar>:
void timestampToChar(char* str, int32_t timestamp) {
 8000e94:	b573      	push	{r0, r1, r4, r5, r6, lr}
  getHoursMins(&hours, &minutes, (uint32_t)timestamp);
 8000e96:	466b      	mov	r3, sp
void timestampToChar(char* str, int32_t timestamp) {
 8000e98:	0004      	movs	r4, r0
  getHoursMins(&hours, &minutes, (uint32_t)timestamp);
 8000e9a:	1d9d      	adds	r5, r3, #6
 8000e9c:	1dde      	adds	r6, r3, #7
 8000e9e:	0028      	movs	r0, r5
void timestampToChar(char* str, int32_t timestamp) {
 8000ea0:	000a      	movs	r2, r1
  getHoursMins(&hours, &minutes, (uint32_t)timestamp);
 8000ea2:	0031      	movs	r1, r6
 8000ea4:	f7ff ffda 	bl	8000e5c <getHoursMins>
  sprintf(str, "%02d:%02d", hours, minutes);
 8000ea8:	7833      	ldrb	r3, [r6, #0]
 8000eaa:	782a      	ldrb	r2, [r5, #0]
 8000eac:	0020      	movs	r0, r4
 8000eae:	4902      	ldr	r1, [pc, #8]	@ (8000eb8 <timestampToChar+0x24>)
 8000eb0:	f002 f8d8 	bl	8003064 <siprintf>
}
 8000eb4:	bd73      	pop	{r0, r1, r4, r5, r6, pc}
 8000eb6:	46c0      	nop			@ (mov r8, r8)
 8000eb8:	080039f9 	.word	0x080039f9

08000ebc <hoursMinsToTimestamp>:

uint32_t hoursMinsToTimestamp(uint8_t hours, uint8_t minutes) {
  return (hours*60 + minutes) * 60;
 8000ebc:	233c      	movs	r3, #60	@ 0x3c
 8000ebe:	4358      	muls	r0, r3
 8000ec0:	1840      	adds	r0, r0, r1
 8000ec2:	4358      	muls	r0, r3
}
 8000ec4:	4770      	bx	lr
	...

08000ec8 <Reset_Handler>:

  .section .text.Reset_Handler
  .weak Reset_Handler
  .type Reset_Handler, %function
Reset_Handler:
  ldr   r0, =_estack
 8000ec8:	480d      	ldr	r0, [pc, #52]	@ (8000f00 <LoopForever+0x2>)
  mov   sp, r0          /* set stack pointer */
 8000eca:	4685      	mov	sp, r0
/* Call the clock system initialization function.*/
  bl  SystemInit
 8000ecc:	f7ff ffbe 	bl	8000e4c <SystemInit>

/* Copy the data segment initializers from flash to SRAM */
  movs r1, #0
 8000ed0:	2100      	movs	r1, #0
  b LoopCopyDataInit
 8000ed2:	e003      	b.n	8000edc <LoopCopyDataInit>

08000ed4 <CopyDataInit>:

CopyDataInit:
  ldr r3, =_sidata
 8000ed4:	4b0b      	ldr	r3, [pc, #44]	@ (8000f04 <LoopForever+0x6>)
  ldr r3, [r3, r1]
 8000ed6:	585b      	ldr	r3, [r3, r1]
  str r3, [r0, r1]
 8000ed8:	5043      	str	r3, [r0, r1]
  adds r1, r1, #4
 8000eda:	3104      	adds	r1, #4

08000edc <LoopCopyDataInit>:

LoopCopyDataInit:
  ldr r0, =_sdata
 8000edc:	480a      	ldr	r0, [pc, #40]	@ (8000f08 <LoopForever+0xa>)
  ldr r3, =_edata
 8000ede:	4b0b      	ldr	r3, [pc, #44]	@ (8000f0c <LoopForever+0xe>)
  adds r2, r0, r1
 8000ee0:	1842      	adds	r2, r0, r1
  cmp r2, r3
 8000ee2:	429a      	cmp	r2, r3
  bcc CopyDataInit
 8000ee4:	d3f6      	bcc.n	8000ed4 <CopyDataInit>
  ldr r2, =_sbss
 8000ee6:	4a0a      	ldr	r2, [pc, #40]	@ (8000f10 <LoopForever+0x12>)
  b LoopFillZerobss
 8000ee8:	e002      	b.n	8000ef0 <LoopFillZerobss>

08000eea <FillZerobss>:
/* Zero fill the bss segment. */
FillZerobss:
  movs r3, #0
 8000eea:	2300      	movs	r3, #0
  str  r3, [r2]
 8000eec:	6013      	str	r3, [r2, #0]
  adds r2, r2, #4
 8000eee:	3204      	adds	r2, #4

08000ef0 <LoopFillZerobss>:


LoopFillZerobss:
  ldr r3, = _ebss
 8000ef0:	4b08      	ldr	r3, [pc, #32]	@ (8000f14 <LoopForever+0x16>)
  cmp r2, r3
 8000ef2:	429a      	cmp	r2, r3
  bcc FillZerobss
 8000ef4:	d3f9      	bcc.n	8000eea <FillZerobss>


/* Call static constructors */
  bl __libc_init_array
 8000ef6:	f002 f8e5 	bl	80030c4 <__libc_init_array>
/* Call the application's entry point.*/
  bl main
 8000efa:	f7ff fcb3 	bl	8000864 <main>

08000efe <LoopForever>:

LoopForever:
    b LoopForever
 8000efe:	e7fe      	b.n	8000efe <LoopForever>
  ldr   r0, =_estack
 8000f00:	20001800 	.word	0x20001800
  ldr r3, =_sidata
 8000f04:	080053d4 	.word	0x080053d4
  ldr r0, =_sdata
 8000f08:	20000000 	.word	0x20000000
  ldr r3, =_edata
 8000f0c:	20000098 	.word	0x20000098
  ldr r2, =_sbss
 8000f10:	20000098 	.word	0x20000098
  ldr r3, = _ebss
 8000f14:	2000087c 	.word	0x2000087c

08000f18 <DMA1_Channel1_IRQHandler>:
 * @retval : None
*/
    .section .text.Default_Handler,"ax",%progbits
Default_Handler:
Infinite_Loop:
  b Infinite_Loop
 8000f18:	e7fe      	b.n	8000f18 <DMA1_Channel1_IRQHandler>
	...

08000f1c <ssd1306_WriteCommand>:
void ssd1306_Reset(void) {
    /* for I2C - do nothing */
}

// Send a byte to the command register
void ssd1306_WriteCommand(uint8_t byte) {
 8000f1c:	b57f      	push	{r0, r1, r2, r3, r4, r5, r6, lr}
 8000f1e:	2217      	movs	r2, #23
    HAL_I2C_Mem_Write(&SSD1306_I2C_PORT, SSD1306_I2C_ADDR, 0x00, 1, &byte, 1, HAL_MAX_DELAY);
 8000f20:	2301      	movs	r3, #1
void ssd1306_WriteCommand(uint8_t byte) {
 8000f22:	446a      	add	r2, sp
    HAL_I2C_Mem_Write(&SSD1306_I2C_PORT, SSD1306_I2C_ADDR, 0x00, 1, &byte, 1, HAL_MAX_DELAY);
 8000f24:	425b      	negs	r3, r3
void ssd1306_WriteCommand(uint8_t byte) {
 8000f26:	7010      	strb	r0, [r2, #0]
    HAL_I2C_Mem_Write(&SSD1306_I2C_PORT, SSD1306_I2C_ADDR, 0x00, 1, &byte, 1, HAL_MAX_DELAY);
 8000f28:	9302      	str	r3, [sp, #8]
 8000f2a:	3302      	adds	r3, #2
 8000f2c:	9200      	str	r2, [sp, #0]
 8000f2e:	2178      	movs	r1, #120	@ 0x78
 8000f30:	2200      	movs	r2, #0
 8000f32:	9301      	str	r3, [sp, #4]
 8000f34:	4802      	ldr	r0, [pc, #8]	@ (8000f40 <ssd1306_WriteCommand+0x24>)
 8000f36:	f001 f955 	bl	80021e4 <HAL_I2C_Mem_Write>
}
 8000f3a:	b007      	add	sp, #28
 8000f3c:	bd00      	pop	{pc}
 8000f3e:	46c0      	nop			@ (mov r8, r8)
 8000f40:	20000254 	.word	0x20000254

08000f44 <ssd1306_WriteData>:

// Send data
void ssd1306_WriteData(uint8_t* buffer, size_t buff_size) {
 8000f44:	b51f      	push	{r0, r1, r2, r3, r4, lr}
    HAL_I2C_Mem_Write(&SSD1306_I2C_PORT, SSD1306_I2C_ADDR, 0x40, 1, buffer, buff_size, HAL_MAX_DELAY);
 8000f46:	2301      	movs	r3, #1
 8000f48:	4c06      	ldr	r4, [pc, #24]	@ (8000f64 <ssd1306_WriteData+0x20>)
 8000f4a:	425b      	negs	r3, r3
 8000f4c:	b289      	uxth	r1, r1
 8000f4e:	9302      	str	r3, [sp, #8]
 8000f50:	9101      	str	r1, [sp, #4]
 8000f52:	9000      	str	r0, [sp, #0]
 8000f54:	2240      	movs	r2, #64	@ 0x40
 8000f56:	2178      	movs	r1, #120	@ 0x78
 8000f58:	0020      	movs	r0, r4
 8000f5a:	3302      	adds	r3, #2
 8000f5c:	f001 f942 	bl	80021e4 <HAL_I2C_Mem_Write>
}
 8000f60:	bd1f      	pop	{r0, r1, r2, r3, r4, pc}
 8000f62:	46c0      	nop			@ (mov r8, r8)
 8000f64:	20000254 	.word	0x20000254

08000f68 <ssd1306_Fill>:
    SSD1306.Initialized = 1;
}

/* Fill the whole screen with the given color */
void ssd1306_Fill(SSD1306_COLOR color) {
    memset(SSD1306_Buffer, (color == Black) ? 0x00 : 0xFF, sizeof(SSD1306_Buffer));
 8000f68:	1e43      	subs	r3, r0, #1
 8000f6a:	4198      	sbcs	r0, r3
 8000f6c:	2280      	movs	r2, #128	@ 0x80
void ssd1306_Fill(SSD1306_COLOR color) {
 8000f6e:	b510      	push	{r4, lr}
    memset(SSD1306_Buffer, (color == Black) ? 0x00 : 0xFF, sizeof(SSD1306_Buffer));
 8000f70:	4241      	negs	r1, r0
 8000f72:	b2c9      	uxtb	r1, r1
 8000f74:	4802      	ldr	r0, [pc, #8]	@ (8000f80 <ssd1306_Fill+0x18>)
 8000f76:	00d2      	lsls	r2, r2, #3
 8000f78:	f002 f896 	bl	80030a8 <memset>
}
 8000f7c:	bd10      	pop	{r4, pc}
 8000f7e:	46c0      	nop			@ (mov r8, r8)
 8000f80:	20000316 	.word	0x20000316

08000f84 <ssd1306_UpdateScreen>:

/* Write the screenbuffer with changed to the screen */
void ssd1306_UpdateScreen(void) {
 8000f84:	b570      	push	{r4, r5, r6, lr}
 8000f86:	24b0      	movs	r4, #176	@ 0xb0
 8000f88:	4d09      	ldr	r5, [pc, #36]	@ (8000fb0 <ssd1306_UpdateScreen+0x2c>)
    //
    //  * 32px   ==  4 pages
    //  * 64px   ==  8 pages
    //  * 128px  ==  16 pages
    for(uint8_t i = 0; i < SSD1306_HEIGHT/8; i++) {
        ssd1306_WriteCommand(0xB0 + i); // Set the current RAM page address.
 8000f8a:	0020      	movs	r0, r4
 8000f8c:	f7ff ffc6 	bl	8000f1c <ssd1306_WriteCommand>
        ssd1306_WriteCommand(0x00 + SSD1306_X_OFFSET_LOWER);
 8000f90:	2000      	movs	r0, #0
 8000f92:	f7ff ffc3 	bl	8000f1c <ssd1306_WriteCommand>
    for(uint8_t i = 0; i < SSD1306_HEIGHT/8; i++) {
 8000f96:	3401      	adds	r4, #1
        ssd1306_WriteCommand(0x10 + SSD1306_X_OFFSET_UPPER);
 8000f98:	2010      	movs	r0, #16
 8000f9a:	f7ff ffbf 	bl	8000f1c <ssd1306_WriteCommand>
    for(uint8_t i = 0; i < SSD1306_HEIGHT/8; i++) {
 8000f9e:	b2e4      	uxtb	r4, r4
        ssd1306_WriteData(&SSD1306_Buffer[SSD1306_WIDTH*i],SSD1306_WIDTH);
 8000fa0:	0028      	movs	r0, r5
 8000fa2:	2180      	movs	r1, #128	@ 0x80
 8000fa4:	f7ff ffce 	bl	8000f44 <ssd1306_WriteData>
    for(uint8_t i = 0; i < SSD1306_HEIGHT/8; i++) {
 8000fa8:	3580      	adds	r5, #128	@ 0x80
 8000faa:	2cb8      	cmp	r4, #184	@ 0xb8
 8000fac:	d1ed      	bne.n	8000f8a <ssd1306_UpdateScreen+0x6>
    }
}
 8000fae:	bd70      	pop	{r4, r5, r6, pc}
 8000fb0:	20000316 	.word	0x20000316

08000fb4 <ssd1306_DrawPixel>:
 * X => X Coordinate
 * Y => Y Coordinate
 * color => Pixel color
 */
void ssd1306_DrawPixel(uint8_t x, uint8_t y, SSD1306_COLOR color) {
    if(x >= SSD1306_WIDTH || y >= SSD1306_HEIGHT) {
 8000fb4:	b243      	sxtb	r3, r0
void ssd1306_DrawPixel(uint8_t x, uint8_t y, SSD1306_COLOR color) {
 8000fb6:	b530      	push	{r4, r5, lr}
    if(x >= SSD1306_WIDTH || y >= SSD1306_HEIGHT) {
 8000fb8:	2b00      	cmp	r3, #0
 8000fba:	db0e      	blt.n	8000fda <ssd1306_DrawPixel+0x26>
 8000fbc:	293f      	cmp	r1, #63	@ 0x3f
 8000fbe:	d80c      	bhi.n	8000fda <ssd1306_DrawPixel+0x26>
        return;
    }
   
    // Draw in the right color
    if(color == White) {
        SSD1306_Buffer[x + (y / 8) * SSD1306_WIDTH] |= 1 << (y % 8);
 8000fc0:	2407      	movs	r4, #7
 8000fc2:	08cb      	lsrs	r3, r1, #3
 8000fc4:	01db      	lsls	r3, r3, #7
 8000fc6:	4d06      	ldr	r5, [pc, #24]	@ (8000fe0 <ssd1306_DrawPixel+0x2c>)
 8000fc8:	4021      	ands	r1, r4
 8000fca:	1818      	adds	r0, r3, r0
 8000fcc:	3c06      	subs	r4, #6
 8000fce:	408c      	lsls	r4, r1
 8000fd0:	5c2b      	ldrb	r3, [r5, r0]
    if(color == White) {
 8000fd2:	2a01      	cmp	r2, #1
 8000fd4:	d102      	bne.n	8000fdc <ssd1306_DrawPixel+0x28>
        SSD1306_Buffer[x + (y / 8) * SSD1306_WIDTH] |= 1 << (y % 8);
 8000fd6:	4323      	orrs	r3, r4
    } else { 
        SSD1306_Buffer[x + (y / 8) * SSD1306_WIDTH] &= ~(1 << (y % 8));
 8000fd8:	542b      	strb	r3, [r5, r0]
    }
}
 8000fda:	bd30      	pop	{r4, r5, pc}
        SSD1306_Buffer[x + (y / 8) * SSD1306_WIDTH] &= ~(1 << (y % 8));
 8000fdc:	43a3      	bics	r3, r4
 8000fde:	e7fb      	b.n	8000fd8 <ssd1306_DrawPixel+0x24>
 8000fe0:	20000316 	.word	0x20000316

08000fe4 <ssd1306_WriteChar>:
 * Draw 1 char to the screen buffer
 * ch       => char om weg te schrijven
 * Font     => Font waarmee we gaan schrijven
 * color    => Black or White
 */
char ssd1306_WriteChar(char ch, SSD1306_Font_t Font, SSD1306_COLOR color) {
 8000fe4:	b5f0      	push	{r4, r5, r6, r7, lr}
 8000fe6:	0004      	movs	r4, r0
 8000fe8:	b08b      	sub	sp, #44	@ 0x2c
 8000fea:	9208      	str	r2, [sp, #32]
    uint32_t i, b, j;
    
    // Check if character is valid
    if (ch < 32 || ch > 126)
 8000fec:	0022      	movs	r2, r4
char ssd1306_WriteChar(char ch, SSD1306_Font_t Font, SSD1306_COLOR color) {
 8000fee:	9309      	str	r3, [sp, #36]	@ 0x24
 8000ff0:	ab10      	add	r3, sp, #64	@ 0x40
 8000ff2:	781b      	ldrb	r3, [r3, #0]
    if (ch < 32 || ch > 126)
 8000ff4:	3a20      	subs	r2, #32
char ssd1306_WriteChar(char ch, SSD1306_Font_t Font, SSD1306_COLOR color) {
 8000ff6:	9305      	str	r3, [sp, #20]
    if (ch < 32 || ch > 126)
 8000ff8:	b2d3      	uxtb	r3, r2
char ssd1306_WriteChar(char ch, SSD1306_Font_t Font, SSD1306_COLOR color) {
 8000ffa:	a807      	add	r0, sp, #28
 8000ffc:	9107      	str	r1, [sp, #28]
    if (ch < 32 || ch > 126)
 8000ffe:	2b5e      	cmp	r3, #94	@ 0x5e
 8001000:	d844      	bhi.n	800108c <ssd1306_WriteChar+0xa8>
 8001002:	6883      	ldr	r3, [r0, #8]
        return 0;
    
    // Char width is not equal to font width for proportional font
    const uint8_t char_width = Font.char_width ? Font.char_width[ch-32] : Font.width;
 8001004:	2b00      	cmp	r3, #0
 8001006:	d01d      	beq.n	8001044 <ssd1306_WriteChar+0x60>
 8001008:	191b      	adds	r3, r3, r4
 800100a:	3b20      	subs	r3, #32
 800100c:	781d      	ldrb	r5, [r3, #0]
    // Check remaining space on current line
    if (SSD1306_WIDTH < (SSD1306.CurrentX + char_width) ||
 800100e:	4b20      	ldr	r3, [pc, #128]	@ (8001090 <ssd1306_WriteChar+0xac>)
 8001010:	8819      	ldrh	r1, [r3, #0]
 8001012:	9101      	str	r1, [sp, #4]
 8001014:	1949      	adds	r1, r1, r5
 8001016:	2980      	cmp	r1, #128	@ 0x80
 8001018:	dc38      	bgt.n	800108c <ssd1306_WriteChar+0xa8>
 800101a:	7841      	ldrb	r1, [r0, #1]
 800101c:	9103      	str	r1, [sp, #12]
        SSD1306_HEIGHT < (SSD1306.CurrentY + Font.height))
 800101e:	885b      	ldrh	r3, [r3, #2]
 8001020:	9304      	str	r3, [sp, #16]
 8001022:	185b      	adds	r3, r3, r1
    if (SSD1306_WIDTH < (SSD1306.CurrentX + char_width) ||
 8001024:	2b40      	cmp	r3, #64	@ 0x40
 8001026:	dc31      	bgt.n	800108c <ssd1306_WriteChar+0xa8>
        // Not enough space on current line
        return 0;
    }
    
    // Use the font to write
    for(i = 0; i < Font.height; i++) {
 8001028:	2700      	movs	r7, #0
 800102a:	434a      	muls	r2, r1
 800102c:	0053      	lsls	r3, r2, #1
 800102e:	9302      	str	r3, [sp, #8]
 8001030:	9b03      	ldr	r3, [sp, #12]
 8001032:	42bb      	cmp	r3, r7
 8001034:	d808      	bhi.n	8001048 <ssd1306_WriteChar+0x64>
            }
        }
    }
    
    // The current space is now taken
    SSD1306.CurrentX += char_width;
 8001036:	9a01      	ldr	r2, [sp, #4]
 8001038:	4b15      	ldr	r3, [pc, #84]	@ (8001090 <ssd1306_WriteChar+0xac>)
 800103a:	18ad      	adds	r5, r5, r2
 800103c:	801d      	strh	r5, [r3, #0]
    
    // Return written char for validation
    return ch;
}
 800103e:	0020      	movs	r0, r4
 8001040:	b00b      	add	sp, #44	@ 0x2c
 8001042:	bdf0      	pop	{r4, r5, r6, r7, pc}
    const uint8_t char_width = Font.char_width ? Font.char_width[ch-32] : Font.width;
 8001044:	7805      	ldrb	r5, [r0, #0]
 8001046:	e7e2      	b.n	800100e <ssd1306_WriteChar+0x2a>
        for(j = 0; j < char_width; j++) {
 8001048:	2600      	movs	r6, #0
        b = Font.data[(ch - 32) * Font.height + i];
 800104a:	9b08      	ldr	r3, [sp, #32]
 800104c:	9a02      	ldr	r2, [sp, #8]
 800104e:	5a9b      	ldrh	r3, [r3, r2]
 8001050:	9306      	str	r3, [sp, #24]
        for(j = 0; j < char_width; j++) {
 8001052:	42b5      	cmp	r5, r6
 8001054:	d804      	bhi.n	8001060 <ssd1306_WriteChar+0x7c>
    for(i = 0; i < Font.height; i++) {
 8001056:	9b02      	ldr	r3, [sp, #8]
 8001058:	3701      	adds	r7, #1
 800105a:	3302      	adds	r3, #2
 800105c:	9302      	str	r3, [sp, #8]
 800105e:	e7e7      	b.n	8001030 <ssd1306_WriteChar+0x4c>
                ssd1306_DrawPixel(SSD1306.CurrentX + j, (SSD1306.CurrentY + i), (SSD1306_COLOR) color);
 8001060:	9b01      	ldr	r3, [sp, #4]
            if((b << j) & 0x8000)  {
 8001062:	2280      	movs	r2, #128	@ 0x80
                ssd1306_DrawPixel(SSD1306.CurrentX + j, (SSD1306.CurrentY + i), (SSD1306_COLOR) color);
 8001064:	18f0      	adds	r0, r6, r3
 8001066:	9b04      	ldr	r3, [sp, #16]
            if((b << j) & 0x8000)  {
 8001068:	0212      	lsls	r2, r2, #8
                ssd1306_DrawPixel(SSD1306.CurrentX + j, (SSD1306.CurrentY + i), (SSD1306_COLOR) color);
 800106a:	18f9      	adds	r1, r7, r3
            if((b << j) & 0x8000)  {
 800106c:	9b06      	ldr	r3, [sp, #24]
                ssd1306_DrawPixel(SSD1306.CurrentX + j, (SSD1306.CurrentY + i), (SSD1306_COLOR) color);
 800106e:	b2c0      	uxtb	r0, r0
            if((b << j) & 0x8000)  {
 8001070:	40b3      	lsls	r3, r6
                ssd1306_DrawPixel(SSD1306.CurrentX + j, (SSD1306.CurrentY + i), (SSD1306_COLOR) color);
 8001072:	b2c9      	uxtb	r1, r1
            if((b << j) & 0x8000)  {
 8001074:	4213      	tst	r3, r2
 8001076:	d004      	beq.n	8001082 <ssd1306_WriteChar+0x9e>
                ssd1306_DrawPixel(SSD1306.CurrentX + j, (SSD1306.CurrentY + i), (SSD1306_COLOR) color);
 8001078:	9a05      	ldr	r2, [sp, #20]
                ssd1306_DrawPixel(SSD1306.CurrentX + j, (SSD1306.CurrentY + i), (SSD1306_COLOR)!color);
 800107a:	f7ff ff9b 	bl	8000fb4 <ssd1306_DrawPixel>
        for(j = 0; j < char_width; j++) {
 800107e:	3601      	adds	r6, #1
 8001080:	e7e7      	b.n	8001052 <ssd1306_WriteChar+0x6e>
                ssd1306_DrawPixel(SSD1306.CurrentX + j, (SSD1306.CurrentY + i), (SSD1306_COLOR)!color);
 8001082:	9b05      	ldr	r3, [sp, #20]
 8001084:	425a      	negs	r2, r3
 8001086:	415a      	adcs	r2, r3
 8001088:	b2d2      	uxtb	r2, r2
 800108a:	e7f6      	b.n	800107a <ssd1306_WriteChar+0x96>
        return 0;
 800108c:	2400      	movs	r4, #0
 800108e:	e7d6      	b.n	800103e <ssd1306_WriteChar+0x5a>
 8001090:	20000310 	.word	0x20000310

08001094 <ssd1306_WriteString>:

/* Write full string to screenbuffer */
char ssd1306_WriteString(char* str, SSD1306_Font_t Font, SSD1306_COLOR color) {
 8001094:	b530      	push	{r4, r5, lr}
 8001096:	0004      	movs	r4, r0
 8001098:	b087      	sub	sp, #28
 800109a:	9305      	str	r3, [sp, #20]
 800109c:	ab0a      	add	r3, sp, #40	@ 0x28
 800109e:	781d      	ldrb	r5, [r3, #0]
 80010a0:	9103      	str	r1, [sp, #12]
 80010a2:	9204      	str	r2, [sp, #16]
    while (*str) {
 80010a4:	7820      	ldrb	r0, [r4, #0]
 80010a6:	2800      	cmp	r0, #0
 80010a8:	d101      	bne.n	80010ae <ssd1306_WriteString+0x1a>
        str++;
    }
    
    // Everything ok
    return *str;
}
 80010aa:	b007      	add	sp, #28
 80010ac:	bd30      	pop	{r4, r5, pc}
        if (ssd1306_WriteChar(*str, Font, color) != *str) {
 80010ae:	9b05      	ldr	r3, [sp, #20]
 80010b0:	9903      	ldr	r1, [sp, #12]
 80010b2:	9a04      	ldr	r2, [sp, #16]
 80010b4:	9500      	str	r5, [sp, #0]
 80010b6:	f7ff ff95 	bl	8000fe4 <ssd1306_WriteChar>
 80010ba:	0003      	movs	r3, r0
 80010bc:	7820      	ldrb	r0, [r4, #0]
 80010be:	4283      	cmp	r3, r0
 80010c0:	d1f3      	bne.n	80010aa <ssd1306_WriteString+0x16>
        str++;
 80010c2:	3401      	adds	r4, #1
 80010c4:	e7ee      	b.n	80010a4 <ssd1306_WriteString+0x10>
	...

080010c8 <ssd1306_SetCursor>:

/* Position the cursor */
void ssd1306_SetCursor(uint8_t x, uint8_t y) {
    SSD1306.CurrentX = x;
 80010c8:	4b01      	ldr	r3, [pc, #4]	@ (80010d0 <ssd1306_SetCursor+0x8>)
 80010ca:	8018      	strh	r0, [r3, #0]
    SSD1306.CurrentY = y;
 80010cc:	8059      	strh	r1, [r3, #2]
}
 80010ce:	4770      	bx	lr
 80010d0:	20000310 	.word	0x20000310

080010d4 <ssd1306_FillRectangle>:

    return;
}

/* Draw a filled rectangle */
void ssd1306_FillRectangle(uint8_t x1, uint8_t y1, uint8_t x2, uint8_t y2, SSD1306_COLOR color) {
 80010d4:	b5f7      	push	{r0, r1, r2, r4, r5, r6, r7, lr}
 80010d6:	ac08      	add	r4, sp, #32
 80010d8:	7824      	ldrb	r4, [r4, #0]
 80010da:	9401      	str	r4, [sp, #4]
    uint8_t x_start = ((x1<=x2) ? x1 : x2);
 80010dc:	1c04      	adds	r4, r0, #0
 80010de:	4290      	cmp	r0, r2
 80010e0:	d900      	bls.n	80010e4 <ssd1306_FillRectangle+0x10>
 80010e2:	1c14      	adds	r4, r2, #0
 80010e4:	b2e4      	uxtb	r4, r4
 80010e6:	9400      	str	r4, [sp, #0]
    uint8_t x_end   = ((x1<=x2) ? x2 : x1);
 80010e8:	1c06      	adds	r6, r0, #0
 80010ea:	4290      	cmp	r0, r2
 80010ec:	d200      	bcs.n	80010f0 <ssd1306_FillRectangle+0x1c>
 80010ee:	1c16      	adds	r6, r2, #0
 80010f0:	b2f6      	uxtb	r6, r6
    uint8_t y_start = ((y1<=y2) ? y1 : y2);
 80010f2:	1c0c      	adds	r4, r1, #0
 80010f4:	4299      	cmp	r1, r3
 80010f6:	d900      	bls.n	80010fa <ssd1306_FillRectangle+0x26>
 80010f8:	1c1c      	adds	r4, r3, #0
 80010fa:	b2e4      	uxtb	r4, r4
    uint8_t y_end   = ((y1<=y2) ? y2 : y1);
 80010fc:	1c0f      	adds	r7, r1, #0
 80010fe:	4299      	cmp	r1, r3
 8001100:	d200      	bcs.n	8001104 <ssd1306_FillRectangle+0x30>
 8001102:	1c1f      	adds	r7, r3, #0
 8001104:	b2ff      	uxtb	r7, r7

    for (uint8_t y= y_start; (y<= y_end)&&(y<SSD1306_HEIGHT); y++) {
 8001106:	42bc      	cmp	r4, r7
 8001108:	d801      	bhi.n	800110e <ssd1306_FillRectangle+0x3a>
 800110a:	2c3f      	cmp	r4, #63	@ 0x3f
 800110c:	d900      	bls.n	8001110 <ssd1306_FillRectangle+0x3c>
        for (uint8_t x= x_start; (x<= x_end)&&(x<SSD1306_WIDTH); x++) {
            ssd1306_DrawPixel(x, y, color);
        }
    }
    return;
}
 800110e:	bdf7      	pop	{r0, r1, r2, r4, r5, r6, r7, pc}
        for (uint8_t x= x_start; (x<= x_end)&&(x<SSD1306_WIDTH); x++) {
 8001110:	9d00      	ldr	r5, [sp, #0]
 8001112:	e009      	b.n	8001128 <ssd1306_FillRectangle+0x54>
 8001114:	b26b      	sxtb	r3, r5
 8001116:	2b00      	cmp	r3, #0
 8001118:	db08      	blt.n	800112c <ssd1306_FillRectangle+0x58>
            ssd1306_DrawPixel(x, y, color);
 800111a:	0028      	movs	r0, r5
 800111c:	0021      	movs	r1, r4
 800111e:	9a01      	ldr	r2, [sp, #4]
 8001120:	f7ff ff48 	bl	8000fb4 <ssd1306_DrawPixel>
        for (uint8_t x= x_start; (x<= x_end)&&(x<SSD1306_WIDTH); x++) {
 8001124:	3501      	adds	r5, #1
 8001126:	b2ed      	uxtb	r5, r5
 8001128:	42b5      	cmp	r5, r6
 800112a:	d9f3      	bls.n	8001114 <ssd1306_FillRectangle+0x40>
    for (uint8_t y= y_start; (y<= y_end)&&(y<SSD1306_HEIGHT); y++) {
 800112c:	3401      	adds	r4, #1
 800112e:	b2e4      	uxtb	r4, r4
 8001130:	e7e9      	b.n	8001106 <ssd1306_FillRectangle+0x32>

08001132 <ssd1306_SetContrast>:
        }
    }
    return;
}

void ssd1306_SetContrast(const uint8_t value) {
 8001132:	b510      	push	{r4, lr}
 8001134:	0004      	movs	r4, r0
    const uint8_t kSetContrastControlRegister = 0x81;
    ssd1306_WriteCommand(kSetContrastControlRegister);
 8001136:	2081      	movs	r0, #129	@ 0x81
 8001138:	f7ff fef0 	bl	8000f1c <ssd1306_WriteCommand>
    ssd1306_WriteCommand(value);
 800113c:	0020      	movs	r0, r4
 800113e:	f7ff feed 	bl	8000f1c <ssd1306_WriteCommand>
}
 8001142:	bd10      	pop	{r4, pc}

08001144 <ssd1306_SetDisplayOn>:

void ssd1306_SetDisplayOn(const uint8_t on) {
 8001144:	0003      	movs	r3, r0
 8001146:	b510      	push	{r4, lr}
    uint8_t value;
    if (on) {
        value = 0xAF;   // Display on
        SSD1306.DisplayOn = 1;
    } else {
        value = 0xAE;   // Display off
 8001148:	20ae      	movs	r0, #174	@ 0xae
    if (on) {
 800114a:	2b00      	cmp	r3, #0
 800114c:	d001      	beq.n	8001152 <ssd1306_SetDisplayOn+0xe>
        SSD1306.DisplayOn = 1;
 800114e:	2301      	movs	r3, #1
        value = 0xAF;   // Display on
 8001150:	18c0      	adds	r0, r0, r3
 8001152:	4a02      	ldr	r2, [pc, #8]	@ (800115c <ssd1306_SetDisplayOn+0x18>)
        SSD1306.DisplayOn = 0;
    }
    ssd1306_WriteCommand(value);
}
 8001154:	7153      	strb	r3, [r2, #5]
    ssd1306_WriteCommand(value);
 8001156:	f7ff fee1 	bl	8000f1c <ssd1306_WriteCommand>
}
 800115a:	bd10      	pop	{r4, pc}
 800115c:	20000310 	.word	0x20000310

08001160 <ssd1306_Init>:
void ssd1306_Init(void) {
 8001160:	b510      	push	{r4, lr}
    HAL_Delay(100);
 8001162:	2064      	movs	r0, #100	@ 0x64
 8001164:	f000 f8ac 	bl	80012c0 <HAL_Delay>
    ssd1306_SetDisplayOn(0); //display off
 8001168:	2000      	movs	r0, #0
 800116a:	f7ff ffeb 	bl	8001144 <ssd1306_SetDisplayOn>
    ssd1306_WriteCommand(0x20); //Set Memory Addressing Mode
 800116e:	2020      	movs	r0, #32
 8001170:	f7ff fed4 	bl	8000f1c <ssd1306_WriteCommand>
    ssd1306_WriteCommand(0x00); // 00b,Horizontal Addressing Mode; 01b,Vertical Addressing Mode;
 8001174:	2000      	movs	r0, #0
 8001176:	f7ff fed1 	bl	8000f1c <ssd1306_WriteCommand>
    ssd1306_WriteCommand(0xB0); //Set Page Start Address for Page Addressing Mode,0-7
 800117a:	20b0      	movs	r0, #176	@ 0xb0
 800117c:	f7ff fece 	bl	8000f1c <ssd1306_WriteCommand>
    ssd1306_WriteCommand(0xC8); //Set COM Output Scan Direction
 8001180:	20c8      	movs	r0, #200	@ 0xc8
 8001182:	f7ff fecb 	bl	8000f1c <ssd1306_WriteCommand>
    ssd1306_WriteCommand(0x00); //---set low column address
 8001186:	2000      	movs	r0, #0
 8001188:	f7ff fec8 	bl	8000f1c <ssd1306_WriteCommand>
    ssd1306_WriteCommand(0x10); //---set high column address
 800118c:	2010      	movs	r0, #16
 800118e:	f7ff fec5 	bl	8000f1c <ssd1306_WriteCommand>
    ssd1306_WriteCommand(0x40); //--set start line address - CHECK
 8001192:	2040      	movs	r0, #64	@ 0x40
 8001194:	f7ff fec2 	bl	8000f1c <ssd1306_WriteCommand>
    ssd1306_SetContrast(0xFF);
 8001198:	20ff      	movs	r0, #255	@ 0xff
 800119a:	f7ff ffca 	bl	8001132 <ssd1306_SetContrast>
    ssd1306_WriteCommand(0xA1); //--set segment re-map 0 to 127 - CHECK
 800119e:	20a1      	movs	r0, #161	@ 0xa1
 80011a0:	f7ff febc 	bl	8000f1c <ssd1306_WriteCommand>
    ssd1306_WriteCommand(0xA6); //--set normal color
 80011a4:	20a6      	movs	r0, #166	@ 0xa6
 80011a6:	f7ff feb9 	bl	8000f1c <ssd1306_WriteCommand>
    ssd1306_WriteCommand(0xA8); //--set multiplex ratio(1 to 64) - CHECK
 80011aa:	20a8      	movs	r0, #168	@ 0xa8
 80011ac:	f7ff feb6 	bl	8000f1c <ssd1306_WriteCommand>
    ssd1306_WriteCommand(0x3F); //
 80011b0:	203f      	movs	r0, #63	@ 0x3f
 80011b2:	f7ff feb3 	bl	8000f1c <ssd1306_WriteCommand>
    ssd1306_WriteCommand(0xA4); //0xa4,Output follows RAM content;0xa5,Output ignores RAM content
 80011b6:	20a4      	movs	r0, #164	@ 0xa4
 80011b8:	f7ff feb0 	bl	8000f1c <ssd1306_WriteCommand>
    ssd1306_WriteCommand(0xD3); //-set display offset - CHECK
 80011bc:	20d3      	movs	r0, #211	@ 0xd3
 80011be:	f7ff fead 	bl	8000f1c <ssd1306_WriteCommand>
    ssd1306_WriteCommand(0x00); //-not offset
 80011c2:	2000      	movs	r0, #0
 80011c4:	f7ff feaa 	bl	8000f1c <ssd1306_WriteCommand>
    ssd1306_WriteCommand(0xD5); //--set display clock divide ratio/oscillator frequency
 80011c8:	20d5      	movs	r0, #213	@ 0xd5
 80011ca:	f7ff fea7 	bl	8000f1c <ssd1306_WriteCommand>
    ssd1306_WriteCommand(0xF0); //--set divide ratio
 80011ce:	20f0      	movs	r0, #240	@ 0xf0
 80011d0:	f7ff fea4 	bl	8000f1c <ssd1306_WriteCommand>
    ssd1306_WriteCommand(0xD9); //--set pre-charge period
 80011d4:	20d9      	movs	r0, #217	@ 0xd9
 80011d6:	f7ff fea1 	bl	8000f1c <ssd1306_WriteCommand>
    ssd1306_WriteCommand(0x22); //
 80011da:	2022      	movs	r0, #34	@ 0x22
 80011dc:	f7ff fe9e 	bl	8000f1c <ssd1306_WriteCommand>
    ssd1306_WriteCommand(0xDA); //--set com pins hardware configuration - CHECK
 80011e0:	20da      	movs	r0, #218	@ 0xda
 80011e2:	f7ff fe9b 	bl	8000f1c <ssd1306_WriteCommand>
    ssd1306_WriteCommand(0x12);
 80011e6:	2012      	movs	r0, #18
 80011e8:	f7ff fe98 	bl	8000f1c <ssd1306_WriteCommand>
    ssd1306_WriteCommand(0xDB); //--set vcomh
 80011ec:	20db      	movs	r0, #219	@ 0xdb
 80011ee:	f7ff fe95 	bl	8000f1c <ssd1306_WriteCommand>
    ssd1306_WriteCommand(0x20); //0x20,0.77xVcc
 80011f2:	2020      	movs	r0, #32
 80011f4:	f7ff fe92 	bl	8000f1c <ssd1306_WriteCommand>
    ssd1306_WriteCommand(0x8D); //--set DC-DC enable
 80011f8:	208d      	movs	r0, #141	@ 0x8d
 80011fa:	f7ff fe8f 	bl	8000f1c <ssd1306_WriteCommand>
    ssd1306_WriteCommand(0x14); //
 80011fe:	2014      	movs	r0, #20
 8001200:	f7ff fe8c 	bl	8000f1c <ssd1306_WriteCommand>
    ssd1306_SetDisplayOn(1); //--turn on SSD1306 panel
 8001204:	2001      	movs	r0, #1
 8001206:	f7ff ff9d 	bl	8001144 <ssd1306_SetDisplayOn>
    ssd1306_Fill(Black);
 800120a:	2000      	movs	r0, #0
 800120c:	f7ff feac 	bl	8000f68 <ssd1306_Fill>
    ssd1306_UpdateScreen();
 8001210:	f7ff feb8 	bl	8000f84 <ssd1306_UpdateScreen>
    SSD1306.CurrentX = 0;
 8001214:	2200      	movs	r2, #0
 8001216:	4b03      	ldr	r3, [pc, #12]	@ (8001224 <ssd1306_Init+0xc4>)
 8001218:	801a      	strh	r2, [r3, #0]
    SSD1306.CurrentY = 0;
 800121a:	805a      	strh	r2, [r3, #2]
    SSD1306.Initialized = 1;
 800121c:	3201      	adds	r2, #1
 800121e:	711a      	strb	r2, [r3, #4]
}
 8001220:	bd10      	pop	{r4, pc}
 8001222:	46c0      	nop			@ (mov r8, r8)
 8001224:	20000310 	.word	0x20000310

08001228 <ssd1306_GetDisplayOn>:

uint8_t ssd1306_GetDisplayOn() {
    return SSD1306.DisplayOn;
 8001228:	4b01      	ldr	r3, [pc, #4]	@ (8001230 <ssd1306_GetDisplayOn+0x8>)
 800122a:	7958      	ldrb	r0, [r3, #5]
}
 800122c:	4770      	bx	lr
 800122e:	46c0      	nop			@ (mov r8, r8)
 8001230:	20000310 	.word	0x20000310

08001234 <HAL_InitTick>:
  *       implementation  in user file.
  * @param TickPriority Tick interrupt priority.
  * @retval HAL status
  */
__weak HAL_StatusTypeDef HAL_InitTick(uint32_t TickPriority)
{
 8001234:	b570      	push	{r4, r5, r6, lr}
  HAL_StatusTypeDef  status = HAL_OK;

  if ((uint32_t)uwTickFreq != 0UL)
 8001236:	4b10      	ldr	r3, [pc, #64]	@ (8001278 <HAL_InitTick+0x44>)
{
 8001238:	0005      	movs	r5, r0
  if ((uint32_t)uwTickFreq != 0UL)
 800123a:	7819      	ldrb	r1, [r3, #0]
 800123c:	2900      	cmp	r1, #0
 800123e:	d101      	bne.n	8001244 <HAL_InitTick+0x10>
        status = HAL_ERROR;
      }
    }
    else
    {
      status = HAL_ERROR;
 8001240:	2001      	movs	r0, #1
    status = HAL_ERROR;
  }

  /* Return function status */
  return status;
}
 8001242:	bd70      	pop	{r4, r5, r6, pc}
    if (HAL_SYSTICK_Config(SystemCoreClock / (1000UL / (uint32_t)uwTickFreq)) == 0U)
 8001244:	20fa      	movs	r0, #250	@ 0xfa
 8001246:	0080      	lsls	r0, r0, #2
 8001248:	f7fe ff72 	bl	8000130 <__udivsi3>
 800124c:	4c0b      	ldr	r4, [pc, #44]	@ (800127c <HAL_InitTick+0x48>)
 800124e:	0001      	movs	r1, r0
 8001250:	6820      	ldr	r0, [r4, #0]
 8001252:	f7fe ff6d 	bl	8000130 <__udivsi3>
 8001256:	f000 fc79 	bl	8001b4c <HAL_SYSTICK_Config>
 800125a:	1e04      	subs	r4, r0, #0
 800125c:	d1f0      	bne.n	8001240 <HAL_InitTick+0xc>
      if (TickPriority < (1UL << __NVIC_PRIO_BITS))
 800125e:	2d03      	cmp	r5, #3
 8001260:	d8ee      	bhi.n	8001240 <HAL_InitTick+0xc>
        HAL_NVIC_SetPriority(SysTick_IRQn, TickPriority, 0U);
 8001262:	0002      	movs	r2, r0
 8001264:	2001      	movs	r0, #1
 8001266:	0029      	movs	r1, r5
 8001268:	4240      	negs	r0, r0
 800126a:	f000 fc39 	bl	8001ae0 <HAL_NVIC_SetPriority>
        uwTickPrio = TickPriority;
 800126e:	4b04      	ldr	r3, [pc, #16]	@ (8001280 <HAL_InitTick+0x4c>)
 8001270:	0020      	movs	r0, r4
 8001272:	601d      	str	r5, [r3, #0]
  return status;
 8001274:	e7e5      	b.n	8001242 <HAL_InitTick+0xe>
 8001276:	46c0      	nop			@ (mov r8, r8)
 8001278:	20000008 	.word	0x20000008
 800127c:	20000004 	.word	0x20000004
 8001280:	2000000c 	.word	0x2000000c

08001284 <HAL_Init>:
{
 8001284:	b510      	push	{r4, lr}
  if (HAL_InitTick(TICK_INT_PRIORITY) != HAL_OK)
 8001286:	2003      	movs	r0, #3
 8001288:	f7ff ffd4 	bl	8001234 <HAL_InitTick>
 800128c:	1e04      	subs	r4, r0, #0
 800128e:	d103      	bne.n	8001298 <HAL_Init+0x14>
    HAL_MspInit();
 8001290:	f7ff fc52 	bl	8000b38 <HAL_MspInit>
}
 8001294:	0020      	movs	r0, r4
 8001296:	bd10      	pop	{r4, pc}
    status = HAL_ERROR;
 8001298:	2401      	movs	r4, #1
 800129a:	e7fb      	b.n	8001294 <HAL_Init+0x10>

0800129c <HAL_IncTick>:
  *      implementations in user file.
  * @retval None
  */
__weak void HAL_IncTick(void)
{
  uwTick += (uint32_t)uwTickFreq;
 800129c:	4a03      	ldr	r2, [pc, #12]	@ (80012ac <HAL_IncTick+0x10>)
 800129e:	4b04      	ldr	r3, [pc, #16]	@ (80012b0 <HAL_IncTick+0x14>)
 80012a0:	6811      	ldr	r1, [r2, #0]
 80012a2:	781b      	ldrb	r3, [r3, #0]
 80012a4:	185b      	adds	r3, r3, r1
 80012a6:	6013      	str	r3, [r2, #0]
}
 80012a8:	4770      	bx	lr
 80012aa:	46c0      	nop			@ (mov r8, r8)
 80012ac:	20000718 	.word	0x20000718
 80012b0:	20000008 	.word	0x20000008

080012b4 <HAL_GetTick>:
  *       implementations in user file.
  * @retval tick value
  */
__weak uint32_t HAL_GetTick(void)
{
  return uwTick;
 80012b4:	4b01      	ldr	r3, [pc, #4]	@ (80012bc <HAL_GetTick+0x8>)
 80012b6:	6818      	ldr	r0, [r3, #0]
}
 80012b8:	4770      	bx	lr
 80012ba:	46c0      	nop			@ (mov r8, r8)
 80012bc:	20000718 	.word	0x20000718

080012c0 <HAL_Delay>:
  *       implementations in user file.
  * @param Delay  specifies the delay time length, in milliseconds.
  * @retval None
  */
__weak void HAL_Delay(uint32_t Delay)
{
 80012c0:	b570      	push	{r4, r5, r6, lr}
 80012c2:	0004      	movs	r4, r0
  uint32_t tickstart = HAL_GetTick();
 80012c4:	f7ff fff6 	bl	80012b4 <HAL_GetTick>
 80012c8:	0005      	movs	r5, r0
  uint32_t wait = Delay;

  /* Add a freq to guarantee minimum wait */
  if (wait < HAL_MAX_DELAY)
 80012ca:	1c63      	adds	r3, r4, #1
 80012cc:	d002      	beq.n	80012d4 <HAL_Delay+0x14>
  {
    wait += (uint32_t)(uwTickFreq);
 80012ce:	4b04      	ldr	r3, [pc, #16]	@ (80012e0 <HAL_Delay+0x20>)
 80012d0:	781b      	ldrb	r3, [r3, #0]
 80012d2:	18e4      	adds	r4, r4, r3
  }

  while ((HAL_GetTick() - tickstart) < wait)
 80012d4:	f7ff ffee 	bl	80012b4 <HAL_GetTick>
 80012d8:	1b40      	subs	r0, r0, r5
 80012da:	42a0      	cmp	r0, r4
 80012dc:	d3fa      	bcc.n	80012d4 <HAL_Delay+0x14>
  {
  }
}
 80012de:	bd70      	pop	{r4, r5, r6, pc}
 80012e0:	20000008 	.word	0x20000008

080012e4 <HAL_SuspendTick>:
  * @retval None
  */
__weak void HAL_SuspendTick(void)
{
  /* Disable SysTick Interrupt */
  CLEAR_BIT(SysTick->CTRL, SysTick_CTRL_TICKINT_Msk);
 80012e4:	2102      	movs	r1, #2
 80012e6:	4a02      	ldr	r2, [pc, #8]	@ (80012f0 <HAL_SuspendTick+0xc>)
 80012e8:	6813      	ldr	r3, [r2, #0]
 80012ea:	438b      	bics	r3, r1
 80012ec:	6013      	str	r3, [r2, #0]
}
 80012ee:	4770      	bx	lr
 80012f0:	e000e010 	.word	0xe000e010

080012f4 <LL_ADC_REG_IsConversionOngoing>:
  * @param  ADCx ADC instance
  * @retval 0: no conversion is on going on ADC group regular.
  */
__STATIC_INLINE uint32_t LL_ADC_REG_IsConversionOngoing(const ADC_TypeDef *ADCx)
{
  return ((READ_BIT(ADCx->CR, ADC_CR_ADSTART) == (ADC_CR_ADSTART)) ? 1UL : 0UL);
 80012f4:	6880      	ldr	r0, [r0, #8]
 80012f6:	0740      	lsls	r0, r0, #29
 80012f8:	0fc0      	lsrs	r0, r0, #31
}
 80012fa:	4770      	bx	lr

080012fc <HAL_ADC_Init>:
{
  HAL_StatusTypeDef tmp_hal_status = HAL_OK;
  uint32_t tmpCFGR1 = 0UL;
  uint32_t tmpCFGR2 = 0UL;
  uint32_t tmp_adc_reg_is_conversion_on_going;
  __IO uint32_t wait_loop_index = 0UL;
 80012fc:	2300      	movs	r3, #0
{
 80012fe:	b5f0      	push	{r4, r5, r6, r7, lr}
 8001300:	b085      	sub	sp, #20
 8001302:	0004      	movs	r4, r0
  __IO uint32_t wait_loop_index = 0UL;
 8001304:	9303      	str	r3, [sp, #12]

  /* Check ADC handle */
  if (hadc == NULL)
 8001306:	4298      	cmp	r0, r3
 8001308:	d100      	bne.n	800130c <HAL_ADC_Init+0x10>
 800130a:	e0ef      	b.n	80014ec <HAL_ADC_Init+0x1f0>
  /* continuous mode is disabled.                                             */
  assert_param(!((hadc->Init.DiscontinuousConvMode == ENABLE) && (hadc->Init.ContinuousConvMode == ENABLE)));

  /* Actions performed only if ADC is coming from state reset:                */
  /* - Initialization of ADC MSP                                              */
  if (hadc->State == HAL_ADC_STATE_RESET)
 800130c:	6d85      	ldr	r5, [r0, #88]	@ 0x58
 800130e:	429d      	cmp	r5, r3
 8001310:	d105      	bne.n	800131e <HAL_ADC_Init+0x22>

    /* Init the low level hardware */
    hadc->MspInitCallback(hadc);
#else
    /* Init the low level hardware */
    HAL_ADC_MspInit(hadc);
 8001312:	f7ff fc29 	bl	8000b68 <HAL_ADC_MspInit>

    /* Set ADC error code to none */
    ADC_CLEAR_ERRORCODE(hadc);

    /* Initialize Lock */
    hadc->Lock = HAL_UNLOCKED;
 8001316:	0023      	movs	r3, r4
 8001318:	3354      	adds	r3, #84	@ 0x54
    ADC_CLEAR_ERRORCODE(hadc);
 800131a:	65e5      	str	r5, [r4, #92]	@ 0x5c
    hadc->Lock = HAL_UNLOCKED;
 800131c:	701d      	strb	r5, [r3, #0]
  return ((READ_BIT(ADCx->CR, ADC_CR_ADVREGEN) == (ADC_CR_ADVREGEN)) ? 1UL : 0UL);
 800131e:	2380      	movs	r3, #128	@ 0x80
  }

  if (LL_ADC_IsInternalRegulatorEnabled(hadc->Instance) == 0UL)
 8001320:	6825      	ldr	r5, [r4, #0]
 8001322:	055b      	lsls	r3, r3, #21
 8001324:	68aa      	ldr	r2, [r5, #8]
 8001326:	421a      	tst	r2, r3
 8001328:	d100      	bne.n	800132c <HAL_ADC_Init+0x30>
 800132a:	e0a7      	b.n	800147c <HAL_ADC_Init+0x180>
  HAL_StatusTypeDef tmp_hal_status = HAL_OK;
 800132c:	2200      	movs	r2, #0
 800132e:	68ab      	ldr	r3, [r5, #8]
 8001330:	9201      	str	r2, [sp, #4]
 8001332:	00db      	lsls	r3, r3, #3
 8001334:	d408      	bmi.n	8001348 <HAL_ADC_Init+0x4c>
  /* or not ADC is coming from state reset (if any potential problem of       */
  /* clocking, voltage regulator would not be enabled).                       */
  if (LL_ADC_IsInternalRegulatorEnabled(hadc->Instance) == 0UL)
  {
    /* Update ADC state machine to error */
    SET_BIT(hadc->State, HAL_ADC_STATE_ERROR_INTERNAL);
 8001336:	2310      	movs	r3, #16

    /* Set ADC error code to ADC peripheral internal error */
    SET_BIT(hadc->ErrorCode, HAL_ADC_ERROR_INTERNAL);
 8001338:	2601      	movs	r6, #1
    SET_BIT(hadc->State, HAL_ADC_STATE_ERROR_INTERNAL);
 800133a:	6da2      	ldr	r2, [r4, #88]	@ 0x58

    tmp_hal_status = HAL_ERROR;
 800133c:	9601      	str	r6, [sp, #4]
    SET_BIT(hadc->State, HAL_ADC_STATE_ERROR_INTERNAL);
 800133e:	4313      	orrs	r3, r2
 8001340:	65a3      	str	r3, [r4, #88]	@ 0x58
    SET_BIT(hadc->ErrorCode, HAL_ADC_ERROR_INTERNAL);
 8001342:	6de3      	ldr	r3, [r4, #92]	@ 0x5c
 8001344:	4333      	orrs	r3, r6
 8001346:	65e3      	str	r3, [r4, #92]	@ 0x5c

  /* Configuration of ADC parameters if previous preliminary actions are      */
  /* correctly completed and if there is no conversion on going on regular    */
  /* group (ADC may already be enabled at this point if HAL_ADC_Init() is     */
  /* called to update a parameter on the fly).                                */
  tmp_adc_reg_is_conversion_on_going = LL_ADC_REG_IsConversionOngoing(hadc->Instance);
 8001348:	0028      	movs	r0, r5
 800134a:	f7ff ffd3 	bl	80012f4 <LL_ADC_REG_IsConversionOngoing>

  if (((hadc->State & HAL_ADC_STATE_ERROR_INTERNAL) == 0UL)
 800134e:	2210      	movs	r2, #16
 8001350:	6da3      	ldr	r3, [r4, #88]	@ 0x58
 8001352:	4013      	ands	r3, r2
 8001354:	4303      	orrs	r3, r0
 8001356:	d000      	beq.n	800135a <HAL_ADC_Init+0x5e>
 8001358:	e0cb      	b.n	80014f2 <HAL_ADC_Init+0x1f6>
      && (tmp_adc_reg_is_conversion_on_going == 0UL)
     )
  {
    /* Set ADC state */
    ADC_STATE_CLR_SET(hadc->State,
 800135a:	6da2      	ldr	r2, [r4, #88]	@ 0x58
 800135c:	4b67      	ldr	r3, [pc, #412]	@ (80014fc <HAL_ADC_Init+0x200>)
                   ADC_CFGR1_AUTOWAIT((uint32_t)hadc->Init.LowPowerAutoWait)      |
                   ADC_CFGR1_AUTOOFF((uint32_t)hadc->Init.LowPowerAutoPowerOff)   |
                   ADC_CFGR1_CONTINUOUS((uint32_t)hadc->Init.ContinuousConvMode)  |
                   ADC_CFGR1_OVERRUN(hadc->Init.Overrun)                          |
                   hadc->Init.DataAlign                                           |
                   ADC_SCAN_SEQ_MODE(hadc->Init.ScanConvMode)                     |
 800135e:	6920      	ldr	r0, [r4, #16]
    ADC_STATE_CLR_SET(hadc->State,
 8001360:	401a      	ands	r2, r3
 8001362:	3306      	adds	r3, #6
 8001364:	33ff      	adds	r3, #255	@ 0xff
 8001366:	4313      	orrs	r3, r2
 8001368:	65a3      	str	r3, [r4, #88]	@ 0x58
  return ((READ_BIT(ADCx->CR, ADC_CR_ADEN) == (ADC_CR_ADEN)) ? 1UL : 0UL);
 800136a:	68ab      	ldr	r3, [r5, #8]
 800136c:	07db      	lsls	r3, r3, #31
 800136e:	d461      	bmi.n	8001434 <HAL_ADC_Init+0x138>
                   ADC_CFGR1_OVERRUN(hadc->Init.Overrun)                          |
 8001370:	6b27      	ldr	r7, [r4, #48]	@ 0x30
 8001372:	68e1      	ldr	r1, [r4, #12]
 8001374:	1e7b      	subs	r3, r7, #1
 8001376:	419f      	sbcs	r7, r3
 8001378:	68a3      	ldr	r3, [r4, #8]
                   ADC_CFGR1_CONTINUOUS((uint32_t)hadc->Init.ContinuousConvMode)  |
 800137a:	7ea2      	ldrb	r2, [r4, #26]
 800137c:	430b      	orrs	r3, r1
                   ADC_CFGR1_AUTOWAIT((uint32_t)hadc->Init.LowPowerAutoWait)      |
 800137e:	7e21      	ldrb	r1, [r4, #24]
                   ADC_CFGR1_OVERRUN(hadc->Init.Overrun)                          |
 8001380:	033f      	lsls	r7, r7, #12
                   ADC_CFGR1_AUTOWAIT((uint32_t)hadc->Init.LowPowerAutoWait)      |
 8001382:	0389      	lsls	r1, r1, #14
 8001384:	430b      	orrs	r3, r1
                   ADC_CFGR1_AUTOOFF((uint32_t)hadc->Init.LowPowerAutoPowerOff)   |
 8001386:	7e61      	ldrb	r1, [r4, #25]
 8001388:	03c9      	lsls	r1, r1, #15
 800138a:	430b      	orrs	r3, r1
                   ADC_CFGR1_CONTINUOUS((uint32_t)hadc->Init.ContinuousConvMode)  |
 800138c:	0351      	lsls	r1, r2, #13
 800138e:	430b      	orrs	r3, r1
 8001390:	469c      	mov	ip, r3
                   ADC_SCAN_SEQ_MODE(hadc->Init.ScanConvMode)                     |
 8001392:	2800      	cmp	r0, #0
 8001394:	db00      	blt.n	8001398 <HAL_ADC_Init+0x9c>
 8001396:	e085      	b.n	80014a4 <HAL_ADC_Init+0x1a8>
 8001398:	0041      	lsls	r1, r0, #1
 800139a:	0849      	lsrs	r1, r1, #1
                   ADC_CFGR1_DMACONTREQ((uint32_t)hadc->Init.DMAContinuousRequests));
 800139c:	0023      	movs	r3, r4
                   ADC_SCAN_SEQ_MODE(hadc->Init.ScanConvMode)                     |
 800139e:	4666      	mov	r6, ip
                   ADC_CFGR1_DMACONTREQ((uint32_t)hadc->Init.DMAContinuousRequests));
 80013a0:	332c      	adds	r3, #44	@ 0x2c
 80013a2:	781b      	ldrb	r3, [r3, #0]
 80013a4:	005b      	lsls	r3, r3, #1
                   ADC_SCAN_SEQ_MODE(hadc->Init.ScanConvMode)                     |
 80013a6:	4333      	orrs	r3, r6
 80013a8:	433b      	orrs	r3, r7
 80013aa:	430b      	orrs	r3, r1

      /* Update setting of discontinuous mode only if continuous mode is disabled */
      if (hadc->Init.DiscontinuousConvMode == ENABLE)
 80013ac:	1c61      	adds	r1, r4, #1
 80013ae:	7fc9      	ldrb	r1, [r1, #31]
 80013b0:	2901      	cmp	r1, #1
 80013b2:	d105      	bne.n	80013c0 <HAL_ADC_Init+0xc4>
      {
        if (hadc->Init.ContinuousConvMode == DISABLE)
 80013b4:	2a00      	cmp	r2, #0
 80013b6:	d000      	beq.n	80013ba <HAL_ADC_Init+0xbe>
 80013b8:	e077      	b.n	80014aa <HAL_ADC_Init+0x1ae>
        {
          /* Enable the selected ADC group regular discontinuous mode */
          tmpCFGR1 |= ADC_CFGR1_DISCEN;
 80013ba:	2280      	movs	r2, #128	@ 0x80
 80013bc:	0252      	lsls	r2, r2, #9
 80013be:	4313      	orrs	r3, r2
      /* Enable external trigger if trigger selection is different of software  */
      /* start.                                                                 */
      /* Note: This configuration keeps the hardware feature of parameter       */
      /*       ExternalTrigConvEdge "trigger edge none" equivalent to           */
      /*       software start.                                                  */
      if (hadc->Init.ExternalTrigConv != ADC_SOFTWARE_START)
 80013c0:	6a62      	ldr	r2, [r4, #36]	@ 0x24
 80013c2:	2a00      	cmp	r2, #0
 80013c4:	d005      	beq.n	80013d2 <HAL_ADC_Init+0xd6>
      {
        tmpCFGR1 |= ((hadc->Init.ExternalTrigConv & ADC_CFGR1_EXTSEL) |
 80013c6:	21e0      	movs	r1, #224	@ 0xe0
 80013c8:	0049      	lsls	r1, r1, #1
 80013ca:	400a      	ands	r2, r1
 80013cc:	6aa1      	ldr	r1, [r4, #40]	@ 0x28
 80013ce:	430a      	orrs	r2, r1
 80013d0:	4313      	orrs	r3, r2
                     hadc->Init.ExternalTrigConvEdge);
      }

      /* Update ADC configuration register with previous settings */
      MODIFY_REG(hadc->Instance->CFGR1,
 80013d2:	68ea      	ldr	r2, [r5, #12]
 80013d4:	494a      	ldr	r1, [pc, #296]	@ (8001500 <HAL_ADC_Init+0x204>)
 80013d6:	400a      	ands	r2, r1
 80013d8:	4313      	orrs	r3, r2
 80013da:	60eb      	str	r3, [r5, #12]

      tmpCFGR2 |= ((hadc->Init.ClockPrescaler & ADC_CFGR2_CKMODE) |
                   hadc->Init.TriggerFrequencyMode
                  );

      if (hadc->Init.OversamplingMode == ENABLE)
 80013dc:	0023      	movs	r3, r4
      tmpCFGR2 |= ((hadc->Init.ClockPrescaler & ADC_CFGR2_CKMODE) |
 80013de:	6862      	ldr	r2, [r4, #4]
      if (hadc->Init.OversamplingMode == ENABLE)
 80013e0:	333c      	adds	r3, #60	@ 0x3c
      tmpCFGR2 |= ((hadc->Init.ClockPrescaler & ADC_CFGR2_CKMODE) |
 80013e2:	6ce1      	ldr	r1, [r4, #76]	@ 0x4c
      if (hadc->Init.OversamplingMode == ENABLE)
 80013e4:	781b      	ldrb	r3, [r3, #0]
      tmpCFGR2 |= ((hadc->Init.ClockPrescaler & ADC_CFGR2_CKMODE) |
 80013e6:	0f97      	lsrs	r7, r2, #30
 80013e8:	07bf      	lsls	r7, r7, #30
      if (hadc->Init.OversamplingMode == ENABLE)
 80013ea:	469c      	mov	ip, r3
      tmpCFGR2 |= ((hadc->Init.ClockPrescaler & ADC_CFGR2_CKMODE) |
 80013ec:	4339      	orrs	r1, r7
      if (hadc->Init.OversamplingMode == ENABLE)
 80013ee:	2b01      	cmp	r3, #1
 80013f0:	d108      	bne.n	8001404 <HAL_ADC_Init+0x108>
      {
        tmpCFGR2 |= (ADC_CFGR2_OVSE |
 80013f2:	6c23      	ldr	r3, [r4, #64]	@ 0x40
 80013f4:	6c66      	ldr	r6, [r4, #68]	@ 0x44
 80013f6:	4333      	orrs	r3, r6
 80013f8:	430b      	orrs	r3, r1
 80013fa:	6ca1      	ldr	r1, [r4, #72]	@ 0x48
 80013fc:	430b      	orrs	r3, r1
 80013fe:	4661      	mov	r1, ip
 8001400:	433b      	orrs	r3, r7
 8001402:	4319      	orrs	r1, r3
                     hadc->Init.Oversampling.RightBitShift |
                     hadc->Init.Oversampling.TriggeredMode
                    );
      }

      MODIFY_REG(hadc->Instance->CFGR2,
 8001404:	692b      	ldr	r3, [r5, #16]
 8001406:	4f3f      	ldr	r7, [pc, #252]	@ (8001504 <HAL_ADC_Init+0x208>)
 8001408:	403b      	ands	r3, r7
 800140a:	430b      	orrs	r3, r1
                 ADC_CFGR2_TOVS,
                 tmpCFGR2);

      /* Configuration of ADC clock mode: asynchronous clock source           */
      /* with selectable prescaler.                                           */
      if (((hadc->Init.ClockPrescaler) != ADC_CLOCK_SYNC_PCLK_DIV1) &&
 800140c:	2180      	movs	r1, #128	@ 0x80
      MODIFY_REG(hadc->Instance->CFGR2,
 800140e:	612b      	str	r3, [r5, #16]
      if (((hadc->Init.ClockPrescaler) != ADC_CLOCK_SYNC_PCLK_DIV1) &&
 8001410:	0053      	lsls	r3, r2, #1
 8001412:	085b      	lsrs	r3, r3, #1
 8001414:	05c9      	lsls	r1, r1, #23
 8001416:	428b      	cmp	r3, r1
 8001418:	d00c      	beq.n	8001434 <HAL_ADC_Init+0x138>
          ((hadc->Init.ClockPrescaler) != ADC_CLOCK_SYNC_PCLK_DIV2) &&
 800141a:	2380      	movs	r3, #128	@ 0x80
 800141c:	061b      	lsls	r3, r3, #24
 800141e:	429a      	cmp	r2, r3
 8001420:	d008      	beq.n	8001434 <HAL_ADC_Init+0x138>
          ((hadc->Init.ClockPrescaler) != ADC_CLOCK_SYNC_PCLK_DIV4))
      {
        MODIFY_REG(ADC1_COMMON->CCR,
 8001422:	4939      	ldr	r1, [pc, #228]	@ (8001508 <HAL_ADC_Init+0x20c>)
 8001424:	4f39      	ldr	r7, [pc, #228]	@ (800150c <HAL_ADC_Init+0x210>)
 8001426:	680b      	ldr	r3, [r1, #0]
 8001428:	403b      	ands	r3, r7
 800142a:	27f0      	movs	r7, #240	@ 0xf0
 800142c:	03bf      	lsls	r7, r7, #14
 800142e:	403a      	ands	r2, r7
 8001430:	4313      	orrs	r3, r2
 8001432:	600b      	str	r3, [r1, #0]
  MODIFY_REG(ADCx->SMPR,
 8001434:	2107      	movs	r1, #7
 8001436:	2770      	movs	r7, #112	@ 0x70
 8001438:	696b      	ldr	r3, [r5, #20]
                   hadc->Init.ClockPrescaler & ADC_CCR_PRESC);
      }
    }

    /* Channel sampling time configuration */
    LL_ADC_SetSamplingTimeCommonChannels(hadc->Instance, LL_ADC_SAMPLINGTIME_COMMON_1, hadc->Init.SamplingTimeCommon1);
 800143a:	6b62      	ldr	r2, [r4, #52]	@ 0x34
 800143c:	438b      	bics	r3, r1
 800143e:	4313      	orrs	r3, r2
 8001440:	616b      	str	r3, [r5, #20]
 8001442:	6969      	ldr	r1, [r5, #20]
 8001444:	6ba3      	ldr	r3, [r4, #56]	@ 0x38
 8001446:	43b9      	bics	r1, r7
 8001448:	011b      	lsls	r3, r3, #4
 800144a:	430b      	orrs	r3, r1
 800144c:	616b      	str	r3, [r5, #20]
    /*   emulated by software for alignment over all STM32 devices.           */
    /* - if scan mode is enabled, regular channels sequence length is set to  */
    /*   parameter "NbrOfConversion".                                         */
    /*   Channels must be configured into each rank using function            */
    /*   "HAL_ADC_ConfigChannel()".                                           */
    if (hadc->Init.ScanConvMode == ADC_SCAN_DISABLE)
 800144e:	2800      	cmp	r0, #0
 8001450:	d133      	bne.n	80014ba <HAL_ADC_Init+0x1be>
    {
      /* Set sequencer scan length by clearing ranks above rank 1             */
      /* and do not modify rank 1 value.                                      */
      SET_BIT(hadc->Instance->CHSELR,
 8001452:	2310      	movs	r3, #16
 8001454:	6aa9      	ldr	r1, [r5, #40]	@ 0x28
 8001456:	425b      	negs	r3, r3
      /*          therefore after the first call of "HAL_ADC_Init()",       */
      /*          each rank corresponding to parameter "NbrOfConversion"    */
      /*          must be set using "HAL_ADC_ConfigChannel()".              */
      /*  - Set sequencer scan length by clearing ranks above maximum rank  */
      /*    and do not modify other ranks value.                            */
      MODIFY_REG(hadc->Instance->CHSELR,
 8001458:	430b      	orrs	r3, r1
 800145a:	62ab      	str	r3, [r5, #40]	@ 0x28
  return (uint32_t)((READ_BIT(ADCx->SMPR, ADC_SMPR_SMP1 << (SamplingTimeY & ADC_SAMPLING_TIME_SMP_SHIFT_MASK)))
 800145c:	2107      	movs	r1, #7
 800145e:	696b      	ldr	r3, [r5, #20]
 8001460:	400b      	ands	r3, r1
    {
      /* Nothing to do */
    }
    /* Check back that ADC registers have effectively been configured to      */
    /* ensure of no potential problem of ADC core peripheral clocking.        */
    if (LL_ADC_GetSamplingTimeCommonChannels(hadc->Instance, LL_ADC_SAMPLINGTIME_COMMON_1)
 8001462:	429a      	cmp	r2, r3
 8001464:	d138      	bne.n	80014d8 <HAL_ADC_Init+0x1dc>
        == hadc->Init.SamplingTimeCommon1)
    {
      /* Set ADC error code to none */
      ADC_CLEAR_ERRORCODE(hadc);
 8001466:	2300      	movs	r3, #0
 8001468:	65e3      	str	r3, [r4, #92]	@ 0x5c

      /* Set the ADC state */
      ADC_STATE_CLR_SET(hadc->State,
 800146a:	6da2      	ldr	r2, [r4, #88]	@ 0x58
 800146c:	3303      	adds	r3, #3
 800146e:	439a      	bics	r2, r3
 8001470:	3b02      	subs	r3, #2
 8001472:	4313      	orrs	r3, r2
 8001474:	65a3      	str	r3, [r4, #88]	@ 0x58
    tmp_hal_status = HAL_ERROR;
  }

  /* Return function status */
  return tmp_hal_status;
}
 8001476:	9801      	ldr	r0, [sp, #4]
 8001478:	b005      	add	sp, #20
 800147a:	bdf0      	pop	{r4, r5, r6, r7, pc}
  MODIFY_REG(ADCx->CR,
 800147c:	68aa      	ldr	r2, [r5, #8]
 800147e:	4924      	ldr	r1, [pc, #144]	@ (8001510 <HAL_ADC_Init+0x214>)
 8001480:	400a      	ands	r2, r1
 8001482:	4313      	orrs	r3, r2
 8001484:	60ab      	str	r3, [r5, #8]
    wait_loop_index = ((LL_ADC_DELAY_INTERNAL_REGUL_STAB_US / 10UL) * (SystemCoreClock / (100000UL * 2UL)));
 8001486:	4b23      	ldr	r3, [pc, #140]	@ (8001514 <HAL_ADC_Init+0x218>)
 8001488:	4923      	ldr	r1, [pc, #140]	@ (8001518 <HAL_ADC_Init+0x21c>)
 800148a:	6818      	ldr	r0, [r3, #0]
 800148c:	f7fe fe50 	bl	8000130 <__udivsi3>
 8001490:	0040      	lsls	r0, r0, #1
 8001492:	9003      	str	r0, [sp, #12]
    while (wait_loop_index != 0UL)
 8001494:	9b03      	ldr	r3, [sp, #12]
 8001496:	2b00      	cmp	r3, #0
 8001498:	d100      	bne.n	800149c <HAL_ADC_Init+0x1a0>
 800149a:	e747      	b.n	800132c <HAL_ADC_Init+0x30>
      wait_loop_index--;
 800149c:	9b03      	ldr	r3, [sp, #12]
 800149e:	3b01      	subs	r3, #1
 80014a0:	9303      	str	r3, [sp, #12]
 80014a2:	e7f7      	b.n	8001494 <HAL_ADC_Init+0x198>
                   ADC_SCAN_SEQ_MODE(hadc->Init.ScanConvMode)                     |
 80014a4:	2180      	movs	r1, #128	@ 0x80
 80014a6:	0389      	lsls	r1, r1, #14
 80014a8:	e778      	b.n	800139c <HAL_ADC_Init+0xa0>
          SET_BIT(hadc->State, HAL_ADC_STATE_ERROR_CONFIG);
 80014aa:	2220      	movs	r2, #32
 80014ac:	6da7      	ldr	r7, [r4, #88]	@ 0x58
 80014ae:	433a      	orrs	r2, r7
 80014b0:	65a2      	str	r2, [r4, #88]	@ 0x58
          SET_BIT(hadc->ErrorCode, HAL_ADC_ERROR_INTERNAL);
 80014b2:	6de2      	ldr	r2, [r4, #92]	@ 0x5c
 80014b4:	4311      	orrs	r1, r2
 80014b6:	65e1      	str	r1, [r4, #92]	@ 0x5c
 80014b8:	e782      	b.n	80013c0 <HAL_ADC_Init+0xc4>
    else if (hadc->Init.ScanConvMode == ADC_SCAN_ENABLE)
 80014ba:	2380      	movs	r3, #128	@ 0x80
 80014bc:	039b      	lsls	r3, r3, #14
 80014be:	4298      	cmp	r0, r3
 80014c0:	d1cc      	bne.n	800145c <HAL_ADC_Init+0x160>
      MODIFY_REG(hadc->Instance->CHSELR,
 80014c2:	211c      	movs	r1, #28
 80014c4:	6aab      	ldr	r3, [r5, #40]	@ 0x28
 80014c6:	69e3      	ldr	r3, [r4, #28]
 80014c8:	3b01      	subs	r3, #1
 80014ca:	009b      	lsls	r3, r3, #2
 80014cc:	400b      	ands	r3, r1
 80014ce:	392c      	subs	r1, #44	@ 0x2c
 80014d0:	4099      	lsls	r1, r3
 80014d2:	000b      	movs	r3, r1
 80014d4:	6e21      	ldr	r1, [r4, #96]	@ 0x60
 80014d6:	e7bf      	b.n	8001458 <HAL_ADC_Init+0x15c>
      ADC_STATE_CLR_SET(hadc->State,
 80014d8:	2312      	movs	r3, #18
 80014da:	6da2      	ldr	r2, [r4, #88]	@ 0x58
 80014dc:	439a      	bics	r2, r3
 80014de:	3b02      	subs	r3, #2
 80014e0:	4313      	orrs	r3, r2
 80014e2:	65a3      	str	r3, [r4, #88]	@ 0x58
      SET_BIT(hadc->ErrorCode, HAL_ADC_ERROR_INTERNAL);
 80014e4:	2301      	movs	r3, #1
 80014e6:	6de2      	ldr	r2, [r4, #92]	@ 0x5c
 80014e8:	4313      	orrs	r3, r2
 80014ea:	65e3      	str	r3, [r4, #92]	@ 0x5c
    return HAL_ERROR;
 80014ec:	2301      	movs	r3, #1
 80014ee:	9301      	str	r3, [sp, #4]
 80014f0:	e7c1      	b.n	8001476 <HAL_ADC_Init+0x17a>
    SET_BIT(hadc->State, HAL_ADC_STATE_ERROR_INTERNAL);
 80014f2:	6da3      	ldr	r3, [r4, #88]	@ 0x58
 80014f4:	431a      	orrs	r2, r3
 80014f6:	65a2      	str	r2, [r4, #88]	@ 0x58
    tmp_hal_status = HAL_ERROR;
 80014f8:	e7f8      	b.n	80014ec <HAL_ADC_Init+0x1f0>
 80014fa:	46c0      	nop			@ (mov r8, r8)
 80014fc:	fffffefd 	.word	0xfffffefd
 8001500:	ffde0201 	.word	0xffde0201
 8001504:	1ffffc02 	.word	0x1ffffc02
 8001508:	40012708 	.word	0x40012708
 800150c:	ffc3ffff 	.word	0xffc3ffff
 8001510:	6fffffe8 	.word	0x6fffffe8
 8001514:	20000004 	.word	0x20000004
 8001518:	00030d40 	.word	0x00030d40

0800151c <HAL_ADC_PollForConversion>:
  * @param hadc ADC handle
  * @param Timeout Timeout value in millisecond.
  * @retval HAL status
  */
HAL_StatusTypeDef HAL_ADC_PollForConversion(ADC_HandleTypeDef *hadc, uint32_t Timeout)
{
 800151c:	b5f7      	push	{r0, r1, r2, r4, r5, r6, r7, lr}

  /* Check the parameters */
  assert_param(IS_ADC_ALL_INSTANCE(hadc->Instance));

  /* If end of conversion selected to end of sequence conversions */
  if (hadc->Init.EOCSelection == ADC_EOC_SEQ_CONV)
 800151e:	6947      	ldr	r7, [r0, #20]
{
 8001520:	0004      	movs	r4, r0
 8001522:	000e      	movs	r6, r1
  if (hadc->Init.EOCSelection == ADC_EOC_SEQ_CONV)
 8001524:	2f08      	cmp	r7, #8
 8001526:	d00a      	beq.n	800153e <HAL_ADC_PollForConversion+0x22>
    /* each conversion:                                                       */
    /* Particular case is ADC configured in DMA mode and ADC sequencer with   */
    /* several ranks and polling for end of each conversion.                  */
    /* For code simplicity sake, this particular case is generalized to       */
    /* ADC configured in DMA mode and and polling for end of each conversion. */
    if ((hadc->Instance->CFGR1 & ADC_CFGR1_DMAEN) != 0UL)
 8001528:	6803      	ldr	r3, [r0, #0]
 800152a:	2001      	movs	r0, #1
 800152c:	68db      	ldr	r3, [r3, #12]

      return HAL_ERROR;
    }
    else
    {
      tmp_Flag_End = (ADC_FLAG_EOC);
 800152e:	2704      	movs	r7, #4
    if ((hadc->Instance->CFGR1 & ADC_CFGR1_DMAEN) != 0UL)
 8001530:	4203      	tst	r3, r0
 8001532:	d004      	beq.n	800153e <HAL_ADC_PollForConversion+0x22>
      SET_BIT(hadc->State, HAL_ADC_STATE_ERROR_CONFIG);
 8001534:	2320      	movs	r3, #32
 8001536:	6da2      	ldr	r2, [r4, #88]	@ 0x58
 8001538:	4313      	orrs	r3, r2
 800153a:	65a3      	str	r3, [r4, #88]	@ 0x58
    __HAL_ADC_CLEAR_FLAG(hadc, (ADC_FLAG_EOC | ADC_FLAG_EOS));
  }

  /* Return function status */
  return HAL_OK;
}
 800153c:	bdfe      	pop	{r1, r2, r3, r4, r5, r6, r7, pc}
  tickstart = HAL_GetTick();
 800153e:	f7ff feb9 	bl	80012b4 <HAL_GetTick>
 8001542:	9001      	str	r0, [sp, #4]
  while ((hadc->Instance->ISR & tmp_Flag_End) == 0UL)
 8001544:	6825      	ldr	r5, [r4, #0]
 8001546:	682b      	ldr	r3, [r5, #0]
 8001548:	421f      	tst	r7, r3
 800154a:	d024      	beq.n	8001596 <HAL_ADC_PollForConversion+0x7a>
  SET_BIT(hadc->State, HAL_ADC_STATE_REG_EOC);
 800154c:	2380      	movs	r3, #128	@ 0x80
 800154e:	6da2      	ldr	r2, [r4, #88]	@ 0x58
 8001550:	009b      	lsls	r3, r3, #2
 8001552:	4313      	orrs	r3, r2
 8001554:	65a3      	str	r3, [r4, #88]	@ 0x58
  return ((READ_BIT(ADCx->CFGR1, ADC_CFGR1_EXTEN) == (LL_ADC_REG_TRIG_SOFTWARE & ADC_CFGR1_EXTEN)) ? 1UL : 0UL);
 8001556:	23c0      	movs	r3, #192	@ 0xc0
 8001558:	68ea      	ldr	r2, [r5, #12]
 800155a:	011b      	lsls	r3, r3, #4
 800155c:	421a      	tst	r2, r3
 800155e:	d115      	bne.n	800158c <HAL_ADC_PollForConversion+0x70>
      && (hadc->Init.ContinuousConvMode == DISABLE)
 8001560:	7ea3      	ldrb	r3, [r4, #26]
 8001562:	2b00      	cmp	r3, #0
 8001564:	d112      	bne.n	800158c <HAL_ADC_PollForConversion+0x70>
    if (__HAL_ADC_GET_FLAG(hadc, ADC_FLAG_EOS))
 8001566:	682b      	ldr	r3, [r5, #0]
 8001568:	071b      	lsls	r3, r3, #28
 800156a:	d50f      	bpl.n	800158c <HAL_ADC_PollForConversion+0x70>
      if (LL_ADC_REG_IsConversionOngoing(hadc->Instance) == 0UL)
 800156c:	0028      	movs	r0, r5
 800156e:	f7ff fec1 	bl	80012f4 <LL_ADC_REG_IsConversionOngoing>
 8001572:	2800      	cmp	r0, #0
 8001574:	d123      	bne.n	80015be <HAL_ADC_PollForConversion+0xa2>
        __HAL_ADC_DISABLE_IT(hadc, ADC_IT_EOC | ADC_IT_EOS);
 8001576:	220c      	movs	r2, #12
 8001578:	686b      	ldr	r3, [r5, #4]
 800157a:	4393      	bics	r3, r2
 800157c:	606b      	str	r3, [r5, #4]
        ADC_STATE_CLR_SET(hadc->State,
 800157e:	6da2      	ldr	r2, [r4, #88]	@ 0x58
 8001580:	4b15      	ldr	r3, [pc, #84]	@ (80015d8 <HAL_ADC_PollForConversion+0xbc>)
 8001582:	401a      	ands	r2, r3
 8001584:	3304      	adds	r3, #4
 8001586:	33ff      	adds	r3, #255	@ 0xff
 8001588:	4313      	orrs	r3, r2
 800158a:	65a3      	str	r3, [r4, #88]	@ 0x58
  if (hadc->Init.LowPowerAutoWait == DISABLE)
 800158c:	7e23      	ldrb	r3, [r4, #24]
 800158e:	2b00      	cmp	r3, #0
 8001590:	d01e      	beq.n	80015d0 <HAL_ADC_PollForConversion+0xb4>
  return HAL_OK;
 8001592:	2000      	movs	r0, #0
 8001594:	e7d2      	b.n	800153c <HAL_ADC_PollForConversion+0x20>
    if (Timeout != HAL_MAX_DELAY)
 8001596:	1c73      	adds	r3, r6, #1
 8001598:	d0d5      	beq.n	8001546 <HAL_ADC_PollForConversion+0x2a>
      if (((HAL_GetTick() - tickstart) > Timeout) || (Timeout == 0UL))
 800159a:	f7ff fe8b 	bl	80012b4 <HAL_GetTick>
 800159e:	9b01      	ldr	r3, [sp, #4]
 80015a0:	1ac0      	subs	r0, r0, r3
 80015a2:	42b0      	cmp	r0, r6
 80015a4:	d908      	bls.n	80015b8 <HAL_ADC_PollForConversion+0x9c>
        SET_BIT(hadc->State, HAL_ADC_STATE_TIMEOUT);
 80015a6:	2304      	movs	r3, #4
 80015a8:	6da2      	ldr	r2, [r4, #88]	@ 0x58
        __HAL_UNLOCK(hadc);
 80015aa:	3454      	adds	r4, #84	@ 0x54
        SET_BIT(hadc->State, HAL_ADC_STATE_TIMEOUT);
 80015ac:	4313      	orrs	r3, r2
 80015ae:	6063      	str	r3, [r4, #4]
        __HAL_UNLOCK(hadc);
 80015b0:	2300      	movs	r3, #0
        return HAL_TIMEOUT;
 80015b2:	2003      	movs	r0, #3
        __HAL_UNLOCK(hadc);
 80015b4:	7023      	strb	r3, [r4, #0]
        return HAL_TIMEOUT;
 80015b6:	e7c1      	b.n	800153c <HAL_ADC_PollForConversion+0x20>
      if (((HAL_GetTick() - tickstart) > Timeout) || (Timeout == 0UL))
 80015b8:	2e00      	cmp	r6, #0
 80015ba:	d1c3      	bne.n	8001544 <HAL_ADC_PollForConversion+0x28>
 80015bc:	e7f3      	b.n	80015a6 <HAL_ADC_PollForConversion+0x8a>
        SET_BIT(hadc->State, HAL_ADC_STATE_ERROR_CONFIG);
 80015be:	2320      	movs	r3, #32
 80015c0:	6da2      	ldr	r2, [r4, #88]	@ 0x58
 80015c2:	4313      	orrs	r3, r2
 80015c4:	65a3      	str	r3, [r4, #88]	@ 0x58
        SET_BIT(hadc->ErrorCode, HAL_ADC_ERROR_INTERNAL);
 80015c6:	2301      	movs	r3, #1
 80015c8:	6de2      	ldr	r2, [r4, #92]	@ 0x5c
 80015ca:	4313      	orrs	r3, r2
 80015cc:	65e3      	str	r3, [r4, #92]	@ 0x5c
 80015ce:	e7dd      	b.n	800158c <HAL_ADC_PollForConversion+0x70>
    __HAL_ADC_CLEAR_FLAG(hadc, (ADC_FLAG_EOC | ADC_FLAG_EOS));
 80015d0:	230c      	movs	r3, #12
 80015d2:	602b      	str	r3, [r5, #0]
 80015d4:	e7dd      	b.n	8001592 <HAL_ADC_PollForConversion+0x76>
 80015d6:	46c0      	nop			@ (mov r8, r8)
 80015d8:	fffffefe 	.word	0xfffffefe

080015dc <HAL_ADC_GetValue>:

  /* Note: EOC flag is not cleared here by software because automatically     */
  /*       cleared by hardware when reading register DR.                      */

  /* Return ADC converted value */
  return hadc->Instance->DR;
 80015dc:	6803      	ldr	r3, [r0, #0]
 80015de:	6c18      	ldr	r0, [r3, #64]	@ 0x40
}
 80015e0:	4770      	bx	lr

080015e2 <HAL_ADC_ConvCpltCallback>:
/**
  * @brief  Conversion complete callback in non-blocking mode.
  * @param hadc ADC handle
  * @retval None
  */
__weak void HAL_ADC_ConvCpltCallback(ADC_HandleTypeDef *hadc)
 80015e2:	4770      	bx	lr

080015e4 <HAL_ADC_LevelOutOfWindowCallback>:
/**
  * @brief  Analog watchdog 1 callback in non-blocking mode.
  * @param hadc ADC handle
  * @retval None
  */
__weak void HAL_ADC_LevelOutOfWindowCallback(ADC_HandleTypeDef *hadc)
 80015e4:	4770      	bx	lr

080015e6 <HAL_ADC_ErrorCallback>:
  *           "HAL_ADC_Start_DMA()"
  *           (this function is also clearing overrun flag)
  * @param hadc ADC handle
  * @retval None
  */
__weak void HAL_ADC_ErrorCallback(ADC_HandleTypeDef *hadc)
 80015e6:	4770      	bx	lr

080015e8 <HAL_ADC_CalibrationCpltCallback>:
/**
  * @brief  Calibration complete callback in non-blocking mode.
  * @param hadc ADC handle
  * @retval None
  */
__weak void HAL_ADC_CalibrationCpltCallback(ADC_HandleTypeDef *hadc)
 80015e8:	4770      	bx	lr

080015ea <HAL_ADC_ADCReadyCallback>:
/**
  * @brief ADC Ready callback in non-blocking mode.
  * @param hadc ADC handle
  * @retval None
  */
__weak void HAL_ADC_ADCReadyCallback(ADC_HandleTypeDef *hadc)
 80015ea:	4770      	bx	lr

080015ec <HAL_ADC_IRQHandler>:
{
 80015ec:	b5f8      	push	{r3, r4, r5, r6, r7, lr}
  uint32_t tmp_isr = hadc->Instance->ISR;
 80015ee:	6803      	ldr	r3, [r0, #0]
{
 80015f0:	0004      	movs	r4, r0
  uint32_t tmp_isr = hadc->Instance->ISR;
 80015f2:	681e      	ldr	r6, [r3, #0]
  uint32_t tmp_ier = hadc->Instance->IER;
 80015f4:	685d      	ldr	r5, [r3, #4]
  if (((tmp_isr & ADC_FLAG_EOSMP) == ADC_FLAG_EOSMP) && ((tmp_ier & ADC_IT_EOSMP) == ADC_IT_EOSMP))
 80015f6:	2302      	movs	r3, #2
 80015f8:	421e      	tst	r6, r3
 80015fa:	d00f      	beq.n	800161c <HAL_ADC_IRQHandler+0x30>
 80015fc:	421d      	tst	r5, r3
 80015fe:	d00d      	beq.n	800161c <HAL_ADC_IRQHandler+0x30>
    if ((hadc->State & HAL_ADC_STATE_ERROR_INTERNAL) == 0UL)
 8001600:	6d83      	ldr	r3, [r0, #88]	@ 0x58
 8001602:	06db      	lsls	r3, r3, #27
 8001604:	d404      	bmi.n	8001610 <HAL_ADC_IRQHandler+0x24>
      SET_BIT(hadc->State, HAL_ADC_STATE_REG_EOSMP);
 8001606:	2380      	movs	r3, #128	@ 0x80
 8001608:	6d82      	ldr	r2, [r0, #88]	@ 0x58
 800160a:	011b      	lsls	r3, r3, #4
 800160c:	4313      	orrs	r3, r2
 800160e:	6583      	str	r3, [r0, #88]	@ 0x58
    HAL_ADCEx_EndOfSamplingCallback(hadc);
 8001610:	0020      	movs	r0, r4
 8001612:	f000 fa63 	bl	8001adc <HAL_ADCEx_EndOfSamplingCallback>
    __HAL_ADC_CLEAR_FLAG(hadc, ADC_FLAG_EOSMP);
 8001616:	2202      	movs	r2, #2
 8001618:	6823      	ldr	r3, [r4, #0]
 800161a:	601a      	str	r2, [r3, #0]
  if ((((tmp_isr & ADC_FLAG_EOC) == ADC_FLAG_EOC) && ((tmp_ier & ADC_IT_EOC) == ADC_IT_EOC)) ||
 800161c:	2304      	movs	r3, #4
 800161e:	421e      	tst	r6, r3
 8001620:	d001      	beq.n	8001626 <HAL_ADC_IRQHandler+0x3a>
 8001622:	421d      	tst	r5, r3
 8001624:	d104      	bne.n	8001630 <HAL_ADC_IRQHandler+0x44>
      (((tmp_isr & ADC_FLAG_EOS) == ADC_FLAG_EOS) && ((tmp_ier & ADC_IT_EOS) == ADC_IT_EOS)))
 8001626:	2308      	movs	r3, #8
  if ((((tmp_isr & ADC_FLAG_EOC) == ADC_FLAG_EOC) && ((tmp_ier & ADC_IT_EOC) == ADC_IT_EOC)) ||
 8001628:	421e      	tst	r6, r3
 800162a:	d02c      	beq.n	8001686 <HAL_ADC_IRQHandler+0x9a>
      (((tmp_isr & ADC_FLAG_EOS) == ADC_FLAG_EOS) && ((tmp_ier & ADC_IT_EOS) == ADC_IT_EOS)))
 800162c:	421d      	tst	r5, r3
 800162e:	d02a      	beq.n	8001686 <HAL_ADC_IRQHandler+0x9a>
    if ((hadc->State & HAL_ADC_STATE_ERROR_INTERNAL) == 0UL)
 8001630:	6da3      	ldr	r3, [r4, #88]	@ 0x58
 8001632:	06db      	lsls	r3, r3, #27
 8001634:	d404      	bmi.n	8001640 <HAL_ADC_IRQHandler+0x54>
      SET_BIT(hadc->State, HAL_ADC_STATE_REG_EOC);
 8001636:	2380      	movs	r3, #128	@ 0x80
 8001638:	6da2      	ldr	r2, [r4, #88]	@ 0x58
 800163a:	009b      	lsls	r3, r3, #2
 800163c:	4313      	orrs	r3, r2
 800163e:	65a3      	str	r3, [r4, #88]	@ 0x58
 8001640:	23c0      	movs	r3, #192	@ 0xc0
    if ((LL_ADC_REG_IsTriggerSourceSWStart(hadc->Instance) != 0UL)
 8001642:	6827      	ldr	r7, [r4, #0]
 8001644:	011b      	lsls	r3, r3, #4
 8001646:	68fa      	ldr	r2, [r7, #12]
 8001648:	421a      	tst	r2, r3
 800164a:	d116      	bne.n	800167a <HAL_ADC_IRQHandler+0x8e>
        && (hadc->Init.ContinuousConvMode == DISABLE)
 800164c:	7ea3      	ldrb	r3, [r4, #26]
 800164e:	2b00      	cmp	r3, #0
 8001650:	d113      	bne.n	800167a <HAL_ADC_IRQHandler+0x8e>
      if (__HAL_ADC_GET_FLAG(hadc, ADC_FLAG_EOS))
 8001652:	683b      	ldr	r3, [r7, #0]
 8001654:	071b      	lsls	r3, r3, #28
 8001656:	d510      	bpl.n	800167a <HAL_ADC_IRQHandler+0x8e>
        if (LL_ADC_REG_IsConversionOngoing(hadc->Instance) == 0UL)
 8001658:	0038      	movs	r0, r7
 800165a:	f7ff fe4b 	bl	80012f4 <LL_ADC_REG_IsConversionOngoing>
 800165e:	2800      	cmp	r0, #0
 8001660:	d000      	beq.n	8001664 <HAL_ADC_IRQHandler+0x78>
 8001662:	e084      	b.n	800176e <HAL_ADC_IRQHandler+0x182>
          __HAL_ADC_DISABLE_IT(hadc, ADC_IT_EOC | ADC_IT_EOS);
 8001664:	220c      	movs	r2, #12
 8001666:	687b      	ldr	r3, [r7, #4]
 8001668:	4393      	bics	r3, r2
 800166a:	607b      	str	r3, [r7, #4]
          ADC_STATE_CLR_SET(hadc->State,
 800166c:	6da2      	ldr	r2, [r4, #88]	@ 0x58
 800166e:	4b44      	ldr	r3, [pc, #272]	@ (8001780 <HAL_ADC_IRQHandler+0x194>)
 8001670:	401a      	ands	r2, r3
 8001672:	3304      	adds	r3, #4
 8001674:	33ff      	adds	r3, #255	@ 0xff
 8001676:	4313      	orrs	r3, r2
 8001678:	65a3      	str	r3, [r4, #88]	@ 0x58
    HAL_ADC_ConvCpltCallback(hadc);
 800167a:	0020      	movs	r0, r4
 800167c:	f7ff ffb1 	bl	80015e2 <HAL_ADC_ConvCpltCallback>
    __HAL_ADC_CLEAR_FLAG(hadc, (ADC_FLAG_EOC | ADC_FLAG_EOS));
 8001680:	220c      	movs	r2, #12
 8001682:	6823      	ldr	r3, [r4, #0]
 8001684:	601a      	str	r2, [r3, #0]
  if (((tmp_isr & ADC_FLAG_AWD1) == ADC_FLAG_AWD1) && ((tmp_ier & ADC_IT_AWD1) == ADC_IT_AWD1))
 8001686:	2780      	movs	r7, #128	@ 0x80
 8001688:	423e      	tst	r6, r7
 800168a:	d00b      	beq.n	80016a4 <HAL_ADC_IRQHandler+0xb8>
 800168c:	423d      	tst	r5, r7
 800168e:	d009      	beq.n	80016a4 <HAL_ADC_IRQHandler+0xb8>
    SET_BIT(hadc->State, HAL_ADC_STATE_AWD1);
 8001690:	2380      	movs	r3, #128	@ 0x80
 8001692:	6da2      	ldr	r2, [r4, #88]	@ 0x58
 8001694:	025b      	lsls	r3, r3, #9
 8001696:	4313      	orrs	r3, r2
 8001698:	65a3      	str	r3, [r4, #88]	@ 0x58
    HAL_ADC_LevelOutOfWindowCallback(hadc);
 800169a:	0020      	movs	r0, r4
 800169c:	f7ff ffa2 	bl	80015e4 <HAL_ADC_LevelOutOfWindowCallback>
    __HAL_ADC_CLEAR_FLAG(hadc, ADC_FLAG_AWD1);
 80016a0:	6823      	ldr	r3, [r4, #0]
 80016a2:	601f      	str	r7, [r3, #0]
  if (((tmp_isr & ADC_FLAG_AWD2) == ADC_FLAG_AWD2) && ((tmp_ier & ADC_IT_AWD2) == ADC_IT_AWD2))
 80016a4:	2780      	movs	r7, #128	@ 0x80
 80016a6:	007f      	lsls	r7, r7, #1
 80016a8:	423e      	tst	r6, r7
 80016aa:	d00b      	beq.n	80016c4 <HAL_ADC_IRQHandler+0xd8>
 80016ac:	423d      	tst	r5, r7
 80016ae:	d009      	beq.n	80016c4 <HAL_ADC_IRQHandler+0xd8>
    SET_BIT(hadc->State, HAL_ADC_STATE_AWD2);
 80016b0:	2380      	movs	r3, #128	@ 0x80
 80016b2:	6da2      	ldr	r2, [r4, #88]	@ 0x58
 80016b4:	029b      	lsls	r3, r3, #10
 80016b6:	4313      	orrs	r3, r2
 80016b8:	65a3      	str	r3, [r4, #88]	@ 0x58
    HAL_ADCEx_LevelOutOfWindow2Callback(hadc);
 80016ba:	0020      	movs	r0, r4
 80016bc:	f000 fa0c 	bl	8001ad8 <HAL_ADCEx_LevelOutOfWindow2Callback>
    __HAL_ADC_CLEAR_FLAG(hadc, ADC_FLAG_AWD2);
 80016c0:	6823      	ldr	r3, [r4, #0]
 80016c2:	601f      	str	r7, [r3, #0]
  if (((tmp_isr & ADC_FLAG_AWD3) == ADC_FLAG_AWD3) && ((tmp_ier & ADC_IT_AWD3) == ADC_IT_AWD3))
 80016c4:	2780      	movs	r7, #128	@ 0x80
 80016c6:	00bf      	lsls	r7, r7, #2
 80016c8:	423e      	tst	r6, r7
 80016ca:	d00b      	beq.n	80016e4 <HAL_ADC_IRQHandler+0xf8>
 80016cc:	423d      	tst	r5, r7
 80016ce:	d009      	beq.n	80016e4 <HAL_ADC_IRQHandler+0xf8>
    SET_BIT(hadc->State, HAL_ADC_STATE_AWD3);
 80016d0:	2380      	movs	r3, #128	@ 0x80
 80016d2:	6da2      	ldr	r2, [r4, #88]	@ 0x58
 80016d4:	02db      	lsls	r3, r3, #11
 80016d6:	4313      	orrs	r3, r2
 80016d8:	65a3      	str	r3, [r4, #88]	@ 0x58
    HAL_ADCEx_LevelOutOfWindow3Callback(hadc);
 80016da:	0020      	movs	r0, r4
 80016dc:	f000 f9fd 	bl	8001ada <HAL_ADCEx_LevelOutOfWindow3Callback>
    __HAL_ADC_CLEAR_FLAG(hadc, ADC_FLAG_AWD3);
 80016e0:	6823      	ldr	r3, [r4, #0]
 80016e2:	601f      	str	r7, [r3, #0]
  if (((tmp_isr & ADC_FLAG_OVR) == ADC_FLAG_OVR) && ((tmp_ier & ADC_IT_OVR) == ADC_IT_OVR))
 80016e4:	2310      	movs	r3, #16
 80016e6:	421e      	tst	r6, r3
 80016e8:	d017      	beq.n	800171a <HAL_ADC_IRQHandler+0x12e>
 80016ea:	421d      	tst	r5, r3
 80016ec:	d015      	beq.n	800171a <HAL_ADC_IRQHandler+0x12e>
    if (hadc->Init.Overrun == ADC_OVR_DATA_PRESERVED)
 80016ee:	6b23      	ldr	r3, [r4, #48]	@ 0x30
 80016f0:	2b00      	cmp	r3, #0
 80016f2:	d003      	beq.n	80016fc <HAL_ADC_IRQHandler+0x110>
      if (LL_ADC_REG_GetDMATransfer(hadc->Instance) != LL_ADC_REG_DMA_TRANSFER_NONE)
 80016f4:	6823      	ldr	r3, [r4, #0]
  return (uint32_t)(READ_BIT(ADCx->CFGR1, ADC_CFGR1_DMAEN | ADC_CFGR1_DMACFG));
 80016f6:	68db      	ldr	r3, [r3, #12]
 80016f8:	079b      	lsls	r3, r3, #30
 80016fa:	d00b      	beq.n	8001714 <HAL_ADC_IRQHandler+0x128>
      SET_BIT(hadc->State, HAL_ADC_STATE_REG_OVR);
 80016fc:	2380      	movs	r3, #128	@ 0x80
 80016fe:	6da2      	ldr	r2, [r4, #88]	@ 0x58
 8001700:	00db      	lsls	r3, r3, #3
 8001702:	4313      	orrs	r3, r2
 8001704:	65a3      	str	r3, [r4, #88]	@ 0x58
      SET_BIT(hadc->ErrorCode, HAL_ADC_ERROR_OVR);
 8001706:	2302      	movs	r3, #2
 8001708:	6de2      	ldr	r2, [r4, #92]	@ 0x5c
      HAL_ADC_ErrorCallback(hadc);
 800170a:	0020      	movs	r0, r4
      SET_BIT(hadc->ErrorCode, HAL_ADC_ERROR_OVR);
 800170c:	4313      	orrs	r3, r2
 800170e:	65e3      	str	r3, [r4, #92]	@ 0x5c
      HAL_ADC_ErrorCallback(hadc);
 8001710:	f7ff ff69 	bl	80015e6 <HAL_ADC_ErrorCallback>
    __HAL_ADC_CLEAR_FLAG(hadc, ADC_FLAG_OVR);
 8001714:	2210      	movs	r2, #16
 8001716:	6823      	ldr	r3, [r4, #0]
 8001718:	601a      	str	r2, [r3, #0]
  if (((tmp_isr & ADC_FLAG_RDY) == ADC_FLAG_RDY) && ((tmp_ier & ADC_IT_RDY) == ADC_IT_RDY))
 800171a:	2301      	movs	r3, #1
 800171c:	421e      	tst	r6, r3
 800171e:	d00f      	beq.n	8001740 <HAL_ADC_IRQHandler+0x154>
 8001720:	421d      	tst	r5, r3
 8001722:	d00d      	beq.n	8001740 <HAL_ADC_IRQHandler+0x154>
    if ((hadc->State & HAL_ADC_STATE_ERROR_INTERNAL) == 0UL)
 8001724:	6da2      	ldr	r2, [r4, #88]	@ 0x58
 8001726:	06d2      	lsls	r2, r2, #27
 8001728:	d402      	bmi.n	8001730 <HAL_ADC_IRQHandler+0x144>
      SET_BIT(hadc->State, HAL_ADC_STATE_READY);
 800172a:	6da2      	ldr	r2, [r4, #88]	@ 0x58
 800172c:	4313      	orrs	r3, r2
 800172e:	65a3      	str	r3, [r4, #88]	@ 0x58
    HAL_ADC_ADCReadyCallback(hadc);
 8001730:	0020      	movs	r0, r4
 8001732:	f7ff ff5a 	bl	80015ea <HAL_ADC_ADCReadyCallback>
    __HAL_ADC_DISABLE_IT(hadc, ADC_IT_RDY);
 8001736:	2101      	movs	r1, #1
 8001738:	6822      	ldr	r2, [r4, #0]
 800173a:	6853      	ldr	r3, [r2, #4]
 800173c:	438b      	bics	r3, r1
 800173e:	6053      	str	r3, [r2, #4]
  if (((tmp_isr & ADC_FLAG_EOCAL) == ADC_FLAG_EOCAL) && ((tmp_ier & ADC_IT_EOCAL) == ADC_IT_EOCAL))
 8001740:	2780      	movs	r7, #128	@ 0x80
 8001742:	013f      	lsls	r7, r7, #4
 8001744:	423e      	tst	r6, r7
 8001746:	d006      	beq.n	8001756 <HAL_ADC_IRQHandler+0x16a>
 8001748:	423d      	tst	r5, r7
 800174a:	d004      	beq.n	8001756 <HAL_ADC_IRQHandler+0x16a>
    HAL_ADC_CalibrationCpltCallback(hadc);
 800174c:	0020      	movs	r0, r4
 800174e:	f7ff ff4b 	bl	80015e8 <HAL_ADC_CalibrationCpltCallback>
    __HAL_ADC_CLEAR_FLAG(hadc, ADC_FLAG_EOCAL);
 8001752:	6823      	ldr	r3, [r4, #0]
 8001754:	601f      	str	r7, [r3, #0]
  if (((tmp_isr & ADC_FLAG_CCRDY) == ADC_FLAG_CCRDY) && ((tmp_ier & ADC_IT_CCRDY) == ADC_IT_CCRDY))
 8001756:	2780      	movs	r7, #128	@ 0x80
 8001758:	01bf      	lsls	r7, r7, #6
 800175a:	423e      	tst	r6, r7
 800175c:	d006      	beq.n	800176c <HAL_ADC_IRQHandler+0x180>
 800175e:	423d      	tst	r5, r7
 8001760:	d004      	beq.n	800176c <HAL_ADC_IRQHandler+0x180>
    HAL_ADCEx_ChannelConfigReadyCallback(hadc);
 8001762:	0020      	movs	r0, r4
 8001764:	f000 f9bb 	bl	8001ade <HAL_ADCEx_ChannelConfigReadyCallback>
    __HAL_ADC_CLEAR_FLAG(hadc, ADC_FLAG_CCRDY);
 8001768:	6823      	ldr	r3, [r4, #0]
 800176a:	601f      	str	r7, [r3, #0]
}
 800176c:	bdf8      	pop	{r3, r4, r5, r6, r7, pc}
          SET_BIT(hadc->State, HAL_ADC_STATE_ERROR_CONFIG);
 800176e:	2320      	movs	r3, #32
 8001770:	6da2      	ldr	r2, [r4, #88]	@ 0x58
 8001772:	4313      	orrs	r3, r2
 8001774:	65a3      	str	r3, [r4, #88]	@ 0x58
          SET_BIT(hadc->ErrorCode, HAL_ADC_ERROR_INTERNAL);
 8001776:	2301      	movs	r3, #1
 8001778:	6de2      	ldr	r2, [r4, #92]	@ 0x5c
 800177a:	4313      	orrs	r3, r2
 800177c:	65e3      	str	r3, [r4, #92]	@ 0x5c
 800177e:	e77c      	b.n	800167a <HAL_ADC_IRQHandler+0x8e>
 8001780:	fffffefe 	.word	0xfffffefe

08001784 <HAL_ADC_ConfigChannel>:
  */
HAL_StatusTypeDef HAL_ADC_ConfigChannel(ADC_HandleTypeDef *hadc, const ADC_ChannelConfTypeDef *sConfig)
{
  HAL_StatusTypeDef tmp_hal_status = HAL_OK;
  uint32_t tmp_config_internal_channel;
  __IO uint32_t wait_loop_index = 0UL;
 8001784:	2300      	movs	r3, #0
{
 8001786:	b5f0      	push	{r4, r5, r6, r7, lr}
 8001788:	b085      	sub	sp, #20
  __IO uint32_t wait_loop_index = 0UL;
 800178a:	9303      	str	r3, [sp, #12]

    assert_param(IS_ADC_REGULAR_RANK(sConfig->Rank));
  }

  /* Process locked */
  __HAL_LOCK(hadc);
 800178c:	0003      	movs	r3, r0
{
 800178e:	9100      	str	r1, [sp, #0]
  __HAL_LOCK(hadc);
 8001790:	3354      	adds	r3, #84	@ 0x54
 8001792:	781a      	ldrb	r2, [r3, #0]
{
 8001794:	0004      	movs	r4, r0
  __HAL_LOCK(hadc);
 8001796:	2002      	movs	r0, #2
 8001798:	2a01      	cmp	r2, #1
 800179a:	d04d      	beq.n	8001838 <HAL_ADC_ConfigChannel+0xb4>
 800179c:	2201      	movs	r2, #1
  if ((hadc->Init.ScanConvMode == ADC_SCAN_SEQ_FIXED)       ||
 800179e:	6927      	ldr	r7, [r4, #16]
  __HAL_LOCK(hadc);
 80017a0:	701a      	strb	r2, [r3, #0]
  /* Parameters that can be updated when ADC is disabled or enabled without   */
  /* conversion on going on regular group:                                    */
  /*  - Channel number                                                        */
  /*  - Channel sampling time                                                 */
  /*  - Management of internal measurement channels: VrefInt/TempSensor       */
  if (LL_ADC_REG_IsConversionOngoing(hadc->Instance) == 0UL)
 80017a2:	6825      	ldr	r5, [r4, #0]
 80017a4:	0028      	movs	r0, r5
 80017a6:	f7ff fda5 	bl	80012f4 <LL_ADC_REG_IsConversionOngoing>
 80017aa:	2800      	cmp	r0, #0
 80017ac:	d000      	beq.n	80017b0 <HAL_ADC_ConfigChannel+0x2c>
 80017ae:	e0f9      	b.n	80019a4 <HAL_ADC_ConfigChannel+0x220>
    /* If sequencer set to not fully configurable with channel rank set to    */
    /* none, remove the channel from the sequencer.                           */
    /* Otherwise (sequencer set to fully configurable or to to not fully      */
    /* configurable with channel rank to be set), configure the selected      */
    /* channel.                                                               */
    if (sConfig->Rank != ADC_RANK_NONE)
 80017b0:	9b00      	ldr	r3, [sp, #0]
      /* Note: ADC channel configuration requires few ADC clock cycles        */
      /*       to be ready. Processing of ADC settings in this function       */
      /*       induce that a specific wait time is not necessary.             */
      /*       For more details on ADC channel configuration ready,           */
      /*       refer to function "LL_ADC_IsActiveFlag_CCRDY()".               */
      if ((hadc->Init.ScanConvMode == ADC_SCAN_SEQ_FIXED)       ||
 80017b2:	2204      	movs	r2, #4
    if (sConfig->Rank != ADC_RANK_NONE)
 80017b4:	685b      	ldr	r3, [r3, #4]
 80017b6:	2180      	movs	r1, #128	@ 0x80
 80017b8:	469c      	mov	ip, r3
      if ((hadc->Init.ScanConvMode == ADC_SCAN_SEQ_FIXED)       ||
 80017ba:	4397      	bics	r7, r2
    if (sConfig->Rank != ADC_RANK_NONE)
 80017bc:	4662      	mov	r2, ip
          (hadc->Init.ScanConvMode == ADC_SCAN_SEQ_FIXED_BACKWARD))
      {
        /* Sequencer set to not fully configurable:                           */
        /* Set the channel by enabling the corresponding bitfield.            */
        LL_ADC_REG_SetSequencerChAdd(hadc->Instance, sConfig->Channel);
 80017be:	9b00      	ldr	r3, [sp, #0]
 80017c0:	0609      	lsls	r1, r1, #24
 80017c2:	681b      	ldr	r3, [r3, #0]
    if (sConfig->Rank != ADC_RANK_NONE)
 80017c4:	2a02      	cmp	r2, #2
 80017c6:	d100      	bne.n	80017ca <HAL_ADC_ConfigChannel+0x46>
 80017c8:	e0c7      	b.n	800195a <HAL_ADC_ConfigChannel+0x1d6>
  SET_BIT(ADCx->CHSELR, (Channel & ADC_CHANNEL_ID_BITFIELD_MASK));
 80017ca:	025a      	lsls	r2, r3, #9
 80017cc:	0a52      	lsrs	r2, r2, #9
      if ((hadc->Init.ScanConvMode == ADC_SCAN_SEQ_FIXED)       ||
 80017ce:	428f      	cmp	r7, r1
 80017d0:	d134      	bne.n	800183c <HAL_ADC_ConfigChannel+0xb8>
 80017d2:	6aa9      	ldr	r1, [r5, #40]	@ 0x28
  MODIFY_REG(ADCx->CHSELR,
 80017d4:	430a      	orrs	r2, r1
 80017d6:	62aa      	str	r2, [r5, #40]	@ 0x28
  MODIFY_REG(ADCx->SMPR,
 80017d8:	9a00      	ldr	r2, [sp, #0]
 80017da:	6968      	ldr	r0, [r5, #20]
 80017dc:	6892      	ldr	r2, [r2, #8]
 80017de:	0219      	lsls	r1, r3, #8
 80017e0:	4e73      	ldr	r6, [pc, #460]	@ (80019b0 <HAL_ADC_ConfigChannel+0x22c>)
 80017e2:	400a      	ands	r2, r1
 80017e4:	4032      	ands	r2, r6
 80017e6:	4388      	bics	r0, r1
 80017e8:	4302      	orrs	r2, r0
 80017ea:	616a      	str	r2, [r5, #20]
      /* internal measurement paths enable: If internal channel selected,     */
      /* enable dedicated internal buffers and path.                          */
      /* Note: these internal measurement paths can be disabled using         */
      /*       HAL_ADC_DeInit() or removing the channel from sequencer with   */
      /*       channel configuration parameter "Rank".                        */
      if (__LL_ADC_IS_CHANNEL_INTERNAL(sConfig->Channel))
 80017ec:	2b00      	cmp	r3, #0
 80017ee:	da1f      	bge.n	8001830 <HAL_ADC_ConfigChannel+0xac>
  return (uint32_t)(READ_BIT(ADCxy_COMMON->CCR, ADC_CCR_VREFEN | ADC_CCR_TSEN));
 80017f0:	20c0      	movs	r0, #192	@ 0xc0
 80017f2:	4a70      	ldr	r2, [pc, #448]	@ (80019b4 <HAL_ADC_ConfigChannel+0x230>)
      {
        tmp_config_internal_channel = LL_ADC_GetCommonPathInternalCh(__LL_ADC_COMMON_INSTANCE(hadc->Instance));

        /* If the requested internal measurement path has already been enabled,   */
        /* bypass the configuration processing.                                   */
        if ((sConfig->Channel == ADC_CHANNEL_TEMPSENSOR) &&
 80017f4:	4970      	ldr	r1, [pc, #448]	@ (80019b8 <HAL_ADC_ConfigChannel+0x234>)
 80017f6:	6815      	ldr	r5, [r2, #0]
 80017f8:	0400      	lsls	r0, r0, #16
 80017fa:	4028      	ands	r0, r5
 80017fc:	428b      	cmp	r3, r1
 80017fe:	d000      	beq.n	8001802 <HAL_ADC_ConfigChannel+0x7e>
 8001800:	e09b      	b.n	800193a <HAL_ADC_ConfigChannel+0x1b6>
            ((tmp_config_internal_channel & LL_ADC_PATH_INTERNAL_TEMPSENSOR) == 0UL))
 8001802:	2180      	movs	r1, #128	@ 0x80
 8001804:	0409      	lsls	r1, r1, #16
        if ((sConfig->Channel == ADC_CHANNEL_TEMPSENSOR) &&
 8001806:	420d      	tst	r5, r1
 8001808:	d112      	bne.n	8001830 <HAL_ADC_ConfigChannel+0xac>
  MODIFY_REG(ADCxy_COMMON->CCR, ADC_CCR_VREFEN | ADC_CCR_TSEN, PathInternal);
 800180a:	6813      	ldr	r3, [r2, #0]
 800180c:	4d6b      	ldr	r5, [pc, #428]	@ (80019bc <HAL_ADC_ConfigChannel+0x238>)
 800180e:	402b      	ands	r3, r5
 8001810:	4303      	orrs	r3, r0
 8001812:	4319      	orrs	r1, r3
          /* Delay for temperature sensor stabilization time */
          /* Wait loop initialization and execution */
          /* Note: Variable divided by 2 to compensate partially              */
          /*       CPU processing cycles, scaling in us split to not          */
          /*       exceed 32 bits register capacity and handle low frequency. */
          wait_loop_index = (((LL_ADC_DELAY_TEMPSENSOR_STAB_US / 10UL) * (SystemCoreClock / (100000UL * 2UL))) + 1UL);
 8001814:	4b6a      	ldr	r3, [pc, #424]	@ (80019c0 <HAL_ADC_ConfigChannel+0x23c>)
 8001816:	6011      	str	r1, [r2, #0]
 8001818:	6818      	ldr	r0, [r3, #0]
 800181a:	496a      	ldr	r1, [pc, #424]	@ (80019c4 <HAL_ADC_ConfigChannel+0x240>)
 800181c:	f7fe fc88 	bl	8000130 <__udivsi3>
 8001820:	230c      	movs	r3, #12
 8001822:	4343      	muls	r3, r0
 8001824:	3301      	adds	r3, #1
          while (wait_loop_index != 0UL)
          {
            wait_loop_index--;
 8001826:	9303      	str	r3, [sp, #12]
          while (wait_loop_index != 0UL)
 8001828:	9b03      	ldr	r3, [sp, #12]
 800182a:	2b00      	cmp	r3, #0
 800182c:	d000      	beq.n	8001830 <HAL_ADC_ConfigChannel+0xac>
 800182e:	e081      	b.n	8001934 <HAL_ADC_ConfigChannel+0x1b0>
  HAL_StatusTypeDef tmp_hal_status = HAL_OK;
 8001830:	2000      	movs	r0, #0

    tmp_hal_status = HAL_ERROR;
  }

  /* Process unlocked */
  __HAL_UNLOCK(hadc);
 8001832:	2300      	movs	r3, #0
 8001834:	3454      	adds	r4, #84	@ 0x54
 8001836:	7023      	strb	r3, [r4, #0]

  /* Return function status */
  return tmp_hal_status;
}
 8001838:	b005      	add	sp, #20
 800183a:	bdf0      	pop	{r4, r5, r6, r7, pc}
        MODIFY_REG(hadc->ADCGroupRegularSequencerRanks,
 800183c:	211f      	movs	r1, #31
 800183e:	4667      	mov	r7, ip
 8001840:	400f      	ands	r7, r1
 8001842:	3910      	subs	r1, #16
 8001844:	40b9      	lsls	r1, r7
 8001846:	43ce      	mvns	r6, r1
 8001848:	9601      	str	r6, [sp, #4]
 800184a:	6e26      	ldr	r6, [r4, #96]	@ 0x60
 800184c:	438e      	bics	r6, r1
 800184e:	0031      	movs	r1, r6
 8001850:	2a00      	cmp	r2, #0
 8001852:	d112      	bne.n	800187a <HAL_ADC_ConfigChannel+0xf6>
 8001854:	0e98      	lsrs	r0, r3, #26
 8001856:	321f      	adds	r2, #31
 8001858:	4010      	ands	r0, r2
 800185a:	40b8      	lsls	r0, r7
        if (((sConfig->Rank >> 2UL) + 1UL) <= hadc->Init.NbrOfConversion)
 800185c:	4662      	mov	r2, ip
        MODIFY_REG(hadc->ADCGroupRegularSequencerRanks,
 800185e:	4308      	orrs	r0, r1
        if (((sConfig->Rank >> 2UL) + 1UL) <= hadc->Init.NbrOfConversion)
 8001860:	0892      	lsrs	r2, r2, #2
 8001862:	69e1      	ldr	r1, [r4, #28]
 8001864:	3201      	adds	r2, #1
        MODIFY_REG(hadc->ADCGroupRegularSequencerRanks,
 8001866:	6620      	str	r0, [r4, #96]	@ 0x60
        if (((sConfig->Rank >> 2UL) + 1UL) <= hadc->Init.NbrOfConversion)
 8001868:	428a      	cmp	r2, r1
 800186a:	d8b5      	bhi.n	80017d8 <HAL_ADC_ConfigChannel+0x54>
  MODIFY_REG(ADCx->CHSELR,
 800186c:	6aa9      	ldr	r1, [r5, #40]	@ 0x28
 800186e:	9801      	ldr	r0, [sp, #4]
 8001870:	009a      	lsls	r2, r3, #2
 8001872:	0f12      	lsrs	r2, r2, #28
 8001874:	40ba      	lsls	r2, r7
 8001876:	4001      	ands	r1, r0
 8001878:	e7ac      	b.n	80017d4 <HAL_ADC_ConfigChannel+0x50>
        MODIFY_REG(hadc->ADCGroupRegularSequencerRanks,
 800187a:	2201      	movs	r2, #1
 800187c:	4213      	tst	r3, r2
 800187e:	d1ec      	bne.n	800185a <HAL_ADC_ConfigChannel+0xd6>
 8001880:	1892      	adds	r2, r2, r2
 8001882:	4213      	tst	r3, r2
 8001884:	d12c      	bne.n	80018e0 <HAL_ADC_ConfigChannel+0x15c>
 8001886:	2604      	movs	r6, #4
 8001888:	4233      	tst	r3, r6
 800188a:	d12b      	bne.n	80018e4 <HAL_ADC_ConfigChannel+0x160>
 800188c:	071a      	lsls	r2, r3, #28
 800188e:	d42b      	bmi.n	80018e8 <HAL_ADC_ConfigChannel+0x164>
 8001890:	06da      	lsls	r2, r3, #27
 8001892:	d42b      	bmi.n	80018ec <HAL_ADC_ConfigChannel+0x168>
 8001894:	069a      	lsls	r2, r3, #26
 8001896:	d42b      	bmi.n	80018f0 <HAL_ADC_ConfigChannel+0x16c>
 8001898:	065a      	lsls	r2, r3, #25
 800189a:	d42b      	bmi.n	80018f4 <HAL_ADC_ConfigChannel+0x170>
 800189c:	061a      	lsls	r2, r3, #24
 800189e:	d42b      	bmi.n	80018f8 <HAL_ADC_ConfigChannel+0x174>
 80018a0:	05da      	lsls	r2, r3, #23
 80018a2:	d42b      	bmi.n	80018fc <HAL_ADC_ConfigChannel+0x178>
 80018a4:	059a      	lsls	r2, r3, #22
 80018a6:	d42b      	bmi.n	8001900 <HAL_ADC_ConfigChannel+0x17c>
 80018a8:	055a      	lsls	r2, r3, #21
 80018aa:	d42b      	bmi.n	8001904 <HAL_ADC_ConfigChannel+0x180>
 80018ac:	051a      	lsls	r2, r3, #20
 80018ae:	d42b      	bmi.n	8001908 <HAL_ADC_ConfigChannel+0x184>
 80018b0:	04da      	lsls	r2, r3, #19
 80018b2:	d42b      	bmi.n	800190c <HAL_ADC_ConfigChannel+0x188>
 80018b4:	049a      	lsls	r2, r3, #18
 80018b6:	d42b      	bmi.n	8001910 <HAL_ADC_ConfigChannel+0x18c>
 80018b8:	045a      	lsls	r2, r3, #17
 80018ba:	d42b      	bmi.n	8001914 <HAL_ADC_ConfigChannel+0x190>
 80018bc:	041a      	lsls	r2, r3, #16
 80018be:	d42b      	bmi.n	8001918 <HAL_ADC_ConfigChannel+0x194>
 80018c0:	03da      	lsls	r2, r3, #15
 80018c2:	d42b      	bmi.n	800191c <HAL_ADC_ConfigChannel+0x198>
 80018c4:	039a      	lsls	r2, r3, #14
 80018c6:	d42b      	bmi.n	8001920 <HAL_ADC_ConfigChannel+0x19c>
 80018c8:	035a      	lsls	r2, r3, #13
 80018ca:	d42b      	bmi.n	8001924 <HAL_ADC_ConfigChannel+0x1a0>
 80018cc:	031a      	lsls	r2, r3, #12
 80018ce:	d42b      	bmi.n	8001928 <HAL_ADC_ConfigChannel+0x1a4>
 80018d0:	02da      	lsls	r2, r3, #11
 80018d2:	d42b      	bmi.n	800192c <HAL_ADC_ConfigChannel+0x1a8>
 80018d4:	029a      	lsls	r2, r3, #10
 80018d6:	d42b      	bmi.n	8001930 <HAL_ADC_ConfigChannel+0x1ac>
 80018d8:	025a      	lsls	r2, r3, #9
 80018da:	d5be      	bpl.n	800185a <HAL_ADC_ConfigChannel+0xd6>
 80018dc:	2016      	movs	r0, #22
 80018de:	e7bc      	b.n	800185a <HAL_ADC_ConfigChannel+0xd6>
 80018e0:	2001      	movs	r0, #1
 80018e2:	e7ba      	b.n	800185a <HAL_ADC_ConfigChannel+0xd6>
 80018e4:	0010      	movs	r0, r2
 80018e6:	e7b8      	b.n	800185a <HAL_ADC_ConfigChannel+0xd6>
 80018e8:	2003      	movs	r0, #3
 80018ea:	e7b6      	b.n	800185a <HAL_ADC_ConfigChannel+0xd6>
 80018ec:	2004      	movs	r0, #4
 80018ee:	e7b4      	b.n	800185a <HAL_ADC_ConfigChannel+0xd6>
 80018f0:	2005      	movs	r0, #5
 80018f2:	e7b2      	b.n	800185a <HAL_ADC_ConfigChannel+0xd6>
 80018f4:	2006      	movs	r0, #6
 80018f6:	e7b0      	b.n	800185a <HAL_ADC_ConfigChannel+0xd6>
 80018f8:	2007      	movs	r0, #7
 80018fa:	e7ae      	b.n	800185a <HAL_ADC_ConfigChannel+0xd6>
 80018fc:	2008      	movs	r0, #8
 80018fe:	e7ac      	b.n	800185a <HAL_ADC_ConfigChannel+0xd6>
 8001900:	2009      	movs	r0, #9
 8001902:	e7aa      	b.n	800185a <HAL_ADC_ConfigChannel+0xd6>
 8001904:	200a      	movs	r0, #10
 8001906:	e7a8      	b.n	800185a <HAL_ADC_ConfigChannel+0xd6>
 8001908:	200b      	movs	r0, #11
 800190a:	e7a6      	b.n	800185a <HAL_ADC_ConfigChannel+0xd6>
 800190c:	200c      	movs	r0, #12
 800190e:	e7a4      	b.n	800185a <HAL_ADC_ConfigChannel+0xd6>
 8001910:	200d      	movs	r0, #13
 8001912:	e7a2      	b.n	800185a <HAL_ADC_ConfigChannel+0xd6>
 8001914:	200e      	movs	r0, #14
 8001916:	e7a0      	b.n	800185a <HAL_ADC_ConfigChannel+0xd6>
 8001918:	200f      	movs	r0, #15
 800191a:	e79e      	b.n	800185a <HAL_ADC_ConfigChannel+0xd6>
 800191c:	2010      	movs	r0, #16
 800191e:	e79c      	b.n	800185a <HAL_ADC_ConfigChannel+0xd6>
 8001920:	2011      	movs	r0, #17
 8001922:	e79a      	b.n	800185a <HAL_ADC_ConfigChannel+0xd6>
 8001924:	2012      	movs	r0, #18
 8001926:	e798      	b.n	800185a <HAL_ADC_ConfigChannel+0xd6>
 8001928:	2013      	movs	r0, #19
 800192a:	e796      	b.n	800185a <HAL_ADC_ConfigChannel+0xd6>
 800192c:	2014      	movs	r0, #20
 800192e:	e794      	b.n	800185a <HAL_ADC_ConfigChannel+0xd6>
 8001930:	2015      	movs	r0, #21
 8001932:	e792      	b.n	800185a <HAL_ADC_ConfigChannel+0xd6>
            wait_loop_index--;
 8001934:	9b03      	ldr	r3, [sp, #12]
 8001936:	3b01      	subs	r3, #1
 8001938:	e775      	b.n	8001826 <HAL_ADC_ConfigChannel+0xa2>
        else if ((sConfig->Channel == ADC_CHANNEL_VREFINT) &&
 800193a:	4923      	ldr	r1, [pc, #140]	@ (80019c8 <HAL_ADC_ConfigChannel+0x244>)
 800193c:	428b      	cmp	r3, r1
 800193e:	d000      	beq.n	8001942 <HAL_ADC_ConfigChannel+0x1be>
 8001940:	e776      	b.n	8001830 <HAL_ADC_ConfigChannel+0xac>
                 ((tmp_config_internal_channel & LL_ADC_PATH_INTERNAL_VREFINT) == 0UL))
 8001942:	2180      	movs	r1, #128	@ 0x80
 8001944:	03c9      	lsls	r1, r1, #15
        else if ((sConfig->Channel == ADC_CHANNEL_VREFINT) &&
 8001946:	420d      	tst	r5, r1
 8001948:	d000      	beq.n	800194c <HAL_ADC_ConfigChannel+0x1c8>
 800194a:	e771      	b.n	8001830 <HAL_ADC_ConfigChannel+0xac>
  MODIFY_REG(ADCxy_COMMON->CCR, ADC_CCR_VREFEN | ADC_CCR_TSEN, PathInternal);
 800194c:	6813      	ldr	r3, [r2, #0]
 800194e:	4d1b      	ldr	r5, [pc, #108]	@ (80019bc <HAL_ADC_ConfigChannel+0x238>)
 8001950:	402b      	ands	r3, r5
 8001952:	4303      	orrs	r3, r0
 8001954:	4319      	orrs	r1, r3
 8001956:	6011      	str	r1, [r2, #0]
}
 8001958:	e76a      	b.n	8001830 <HAL_ADC_ConfigChannel+0xac>
      if ((hadc->Init.ScanConvMode == ADC_SCAN_SEQ_FIXED)       ||
 800195a:	428f      	cmp	r7, r1
 800195c:	d104      	bne.n	8001968 <HAL_ADC_ConfigChannel+0x1e4>
  CLEAR_BIT(ADCx->CHSELR, (Channel & ADC_CHANNEL_ID_BITFIELD_MASK));
 800195e:	6aaa      	ldr	r2, [r5, #40]	@ 0x28
 8001960:	0259      	lsls	r1, r3, #9
 8001962:	0a49      	lsrs	r1, r1, #9
 8001964:	438a      	bics	r2, r1
 8001966:	62aa      	str	r2, [r5, #40]	@ 0x28
      if (__LL_ADC_IS_CHANNEL_INTERNAL(sConfig->Channel))
 8001968:	2b00      	cmp	r3, #0
 800196a:	db00      	blt.n	800196e <HAL_ADC_ConfigChannel+0x1ea>
 800196c:	e760      	b.n	8001830 <HAL_ADC_ConfigChannel+0xac>
  return (uint32_t)(READ_BIT(ADCxy_COMMON->CCR, ADC_CCR_VREFEN | ADC_CCR_TSEN));
 800196e:	4911      	ldr	r1, [pc, #68]	@ (80019b4 <HAL_ADC_ConfigChannel+0x230>)
        if (sConfig->Channel == ADC_CHANNEL_TEMPSENSOR)
 8001970:	4811      	ldr	r0, [pc, #68]	@ (80019b8 <HAL_ADC_ConfigChannel+0x234>)
 8001972:	680a      	ldr	r2, [r1, #0]
 8001974:	4283      	cmp	r3, r0
 8001976:	d108      	bne.n	800198a <HAL_ADC_ConfigChannel+0x206>
          LL_ADC_SetCommonPathInternalCh(__LL_ADC_COMMON_INSTANCE(hadc->Instance),
 8001978:	2380      	movs	r3, #128	@ 0x80
 800197a:	03db      	lsls	r3, r3, #15
  MODIFY_REG(ADCxy_COMMON->CCR, ADC_CCR_VREFEN | ADC_CCR_TSEN, PathInternal);
 800197c:	6808      	ldr	r0, [r1, #0]
 800197e:	4013      	ands	r3, r2
 8001980:	4a0e      	ldr	r2, [pc, #56]	@ (80019bc <HAL_ADC_ConfigChannel+0x238>)
 8001982:	4002      	ands	r2, r0
 8001984:	4313      	orrs	r3, r2
 8001986:	600b      	str	r3, [r1, #0]
}
 8001988:	e752      	b.n	8001830 <HAL_ADC_ConfigChannel+0xac>
        else if (sConfig->Channel == ADC_CHANNEL_VREFINT)
 800198a:	480f      	ldr	r0, [pc, #60]	@ (80019c8 <HAL_ADC_ConfigChannel+0x244>)
 800198c:	4283      	cmp	r3, r0
 800198e:	d000      	beq.n	8001992 <HAL_ADC_ConfigChannel+0x20e>
 8001990:	e74e      	b.n	8001830 <HAL_ADC_ConfigChannel+0xac>
          LL_ADC_SetCommonPathInternalCh(__LL_ADC_COMMON_INSTANCE(hadc->Instance),
 8001992:	2080      	movs	r0, #128	@ 0x80
 8001994:	0400      	lsls	r0, r0, #16
  MODIFY_REG(ADCxy_COMMON->CCR, ADC_CCR_VREFEN | ADC_CCR_TSEN, PathInternal);
 8001996:	680b      	ldr	r3, [r1, #0]
 8001998:	4002      	ands	r2, r0
 800199a:	4808      	ldr	r0, [pc, #32]	@ (80019bc <HAL_ADC_ConfigChannel+0x238>)
 800199c:	4003      	ands	r3, r0
 800199e:	431a      	orrs	r2, r3
 80019a0:	600a      	str	r2, [r1, #0]
}
 80019a2:	e745      	b.n	8001830 <HAL_ADC_ConfigChannel+0xac>
    SET_BIT(hadc->State, HAL_ADC_STATE_ERROR_CONFIG);
 80019a4:	2320      	movs	r3, #32
 80019a6:	6da2      	ldr	r2, [r4, #88]	@ 0x58
    tmp_hal_status = HAL_ERROR;
 80019a8:	2001      	movs	r0, #1
    SET_BIT(hadc->State, HAL_ADC_STATE_ERROR_CONFIG);
 80019aa:	4313      	orrs	r3, r2
 80019ac:	65a3      	str	r3, [r4, #88]	@ 0x58
    tmp_hal_status = HAL_ERROR;
 80019ae:	e740      	b.n	8001832 <HAL_ADC_ConfigChannel+0xae>
 80019b0:	7fffff00 	.word	0x7fffff00
 80019b4:	40012708 	.word	0x40012708
 80019b8:	a4000200 	.word	0xa4000200
 80019bc:	ff3fffff 	.word	0xff3fffff
 80019c0:	20000004 	.word	0x20000004
 80019c4:	00030d40 	.word	0x00030d40
 80019c8:	a8000400 	.word	0xa8000400

080019cc <ADC_Enable>:
  * @retval HAL status.
  */
HAL_StatusTypeDef ADC_Enable(ADC_HandleTypeDef *hadc)
{
  uint32_t tickstart;
  __IO uint32_t wait_loop_index = 0UL;
 80019cc:	2300      	movs	r3, #0
{
 80019ce:	b5f7      	push	{r0, r1, r2, r4, r5, r6, r7, lr}

  /* ADC enable and wait for ADC ready (in case of ADC is disabled or         */
  /* enabling phase not yet completed: flag ADC ready not yet set).           */
  /* Timeout implemented to not be stuck if ADC cannot be enabled (possible   */
  /* causes: ADC clock not running, ...).                                     */
  if (LL_ADC_IsEnabled(hadc->Instance) == 0UL)
 80019d0:	6802      	ldr	r2, [r0, #0]
  __IO uint32_t wait_loop_index = 0UL;
 80019d2:	9301      	str	r3, [sp, #4]
  return ((READ_BIT(ADCx->CR, ADC_CR_ADEN) == (ADC_CR_ADEN)) ? 1UL : 0UL);
 80019d4:	6891      	ldr	r1, [r2, #8]
 80019d6:	3301      	adds	r3, #1
{
 80019d8:	0004      	movs	r4, r0
 80019da:	4219      	tst	r1, r3
 80019dc:	d001      	beq.n	80019e2 <ADC_Enable+0x16>
      }
    }
  }

  /* Return HAL status */
  return HAL_OK;
 80019de:	2000      	movs	r0, #0
}
 80019e0:	bdfe      	pop	{r1, r2, r3, r4, r5, r6, r7, pc}
    if ((hadc->Instance->CR & (ADC_CR_ADCAL | ADC_CR_ADSTP | ADC_CR_ADSTART | ADC_CR_ADDIS | ADC_CR_ADEN)) != 0UL)
 80019e2:	6890      	ldr	r0, [r2, #8]
 80019e4:	4920      	ldr	r1, [pc, #128]	@ (8001a68 <ADC_Enable+0x9c>)
 80019e6:	4208      	tst	r0, r1
 80019e8:	d008      	beq.n	80019fc <ADC_Enable+0x30>
      SET_BIT(hadc->State, HAL_ADC_STATE_ERROR_INTERNAL);
 80019ea:	2210      	movs	r2, #16
 80019ec:	6da1      	ldr	r1, [r4, #88]	@ 0x58
 80019ee:	430a      	orrs	r2, r1
 80019f0:	65a2      	str	r2, [r4, #88]	@ 0x58
      SET_BIT(hadc->ErrorCode, HAL_ADC_ERROR_INTERNAL);
 80019f2:	6de2      	ldr	r2, [r4, #92]	@ 0x5c
          SET_BIT(hadc->ErrorCode, HAL_ADC_ERROR_INTERNAL);
 80019f4:	4313      	orrs	r3, r2
      return HAL_ERROR;
 80019f6:	2001      	movs	r0, #1
          SET_BIT(hadc->ErrorCode, HAL_ADC_ERROR_INTERNAL);
 80019f8:	65e3      	str	r3, [r4, #92]	@ 0x5c
          return HAL_ERROR;
 80019fa:	e7f1      	b.n	80019e0 <ADC_Enable+0x14>
  MODIFY_REG(ADCx->CR,
 80019fc:	6891      	ldr	r1, [r2, #8]
 80019fe:	4f1b      	ldr	r7, [pc, #108]	@ (8001a6c <ADC_Enable+0xa0>)
 8001a00:	4039      	ands	r1, r7
 8001a02:	430b      	orrs	r3, r1
 8001a04:	6093      	str	r3, [r2, #8]
  return (uint32_t)(READ_BIT(ADCxy_COMMON->CCR, ADC_CCR_VREFEN | ADC_CCR_TSEN));
 8001a06:	4b1a      	ldr	r3, [pc, #104]	@ (8001a70 <ADC_Enable+0xa4>)
 8001a08:	681b      	ldr	r3, [r3, #0]
    if ((LL_ADC_GetCommonPathInternalCh(__LL_ADC_COMMON_INSTANCE(hadc->Instance)) & LL_ADC_PATH_INTERNAL_TEMPSENSOR)
 8001a0a:	021b      	lsls	r3, r3, #8
 8001a0c:	d41d      	bmi.n	8001a4a <ADC_Enable+0x7e>
    if (hadc->Init.LowPowerAutoPowerOff != ENABLE)
 8001a0e:	7e63      	ldrb	r3, [r4, #25]
 8001a10:	2b01      	cmp	r3, #1
 8001a12:	d0e4      	beq.n	80019de <ADC_Enable+0x12>
      tickstart = HAL_GetTick();
 8001a14:	f7ff fc4e 	bl	80012b4 <HAL_GetTick>
      while (__HAL_ADC_GET_FLAG(hadc, ADC_FLAG_RDY) == 0UL)
 8001a18:	2501      	movs	r5, #1
      tickstart = HAL_GetTick();
 8001a1a:	0006      	movs	r6, r0
      while (__HAL_ADC_GET_FLAG(hadc, ADC_FLAG_RDY) == 0UL)
 8001a1c:	6822      	ldr	r2, [r4, #0]
 8001a1e:	6813      	ldr	r3, [r2, #0]
 8001a20:	422b      	tst	r3, r5
 8001a22:	d1dc      	bne.n	80019de <ADC_Enable+0x12>
  return ((READ_BIT(ADCx->CR, ADC_CR_ADEN) == (ADC_CR_ADEN)) ? 1UL : 0UL);
 8001a24:	6893      	ldr	r3, [r2, #8]
 8001a26:	422b      	tst	r3, r5
 8001a28:	d103      	bne.n	8001a32 <ADC_Enable+0x66>
  MODIFY_REG(ADCx->CR,
 8001a2a:	6893      	ldr	r3, [r2, #8]
 8001a2c:	403b      	ands	r3, r7
 8001a2e:	432b      	orrs	r3, r5
 8001a30:	6093      	str	r3, [r2, #8]
        if ((HAL_GetTick() - tickstart) > ADC_ENABLE_TIMEOUT)
 8001a32:	f7ff fc3f 	bl	80012b4 <HAL_GetTick>
 8001a36:	1b80      	subs	r0, r0, r6
 8001a38:	2802      	cmp	r0, #2
 8001a3a:	d9ef      	bls.n	8001a1c <ADC_Enable+0x50>
          SET_BIT(hadc->State, HAL_ADC_STATE_ERROR_INTERNAL);
 8001a3c:	2310      	movs	r3, #16
 8001a3e:	6da2      	ldr	r2, [r4, #88]	@ 0x58
 8001a40:	4313      	orrs	r3, r2
 8001a42:	65a3      	str	r3, [r4, #88]	@ 0x58
          SET_BIT(hadc->ErrorCode, HAL_ADC_ERROR_INTERNAL);
 8001a44:	6de2      	ldr	r2, [r4, #92]	@ 0x5c
 8001a46:	2301      	movs	r3, #1
 8001a48:	e7d4      	b.n	80019f4 <ADC_Enable+0x28>
                         * ((SystemCoreClock / (100000UL * 2UL)) + 1UL));
 8001a4a:	4b0a      	ldr	r3, [pc, #40]	@ (8001a74 <ADC_Enable+0xa8>)
 8001a4c:	490a      	ldr	r1, [pc, #40]	@ (8001a78 <ADC_Enable+0xac>)
 8001a4e:	6818      	ldr	r0, [r3, #0]
 8001a50:	f7fe fb6e 	bl	8000130 <__udivsi3>
 8001a54:	3001      	adds	r0, #1
      wait_loop_index = ((LL_ADC_DELAY_TEMPSENSOR_BUFFER_STAB_US / 10UL)
 8001a56:	9001      	str	r0, [sp, #4]
      while (wait_loop_index != 0UL)
 8001a58:	9b01      	ldr	r3, [sp, #4]
 8001a5a:	2b00      	cmp	r3, #0
 8001a5c:	d0d7      	beq.n	8001a0e <ADC_Enable+0x42>
        wait_loop_index--;
 8001a5e:	9b01      	ldr	r3, [sp, #4]
 8001a60:	3b01      	subs	r3, #1
 8001a62:	9301      	str	r3, [sp, #4]
 8001a64:	e7f8      	b.n	8001a58 <ADC_Enable+0x8c>
 8001a66:	46c0      	nop			@ (mov r8, r8)
 8001a68:	80000017 	.word	0x80000017
 8001a6c:	7fffffe8 	.word	0x7fffffe8
 8001a70:	40012708 	.word	0x40012708
 8001a74:	20000004 	.word	0x20000004
 8001a78:	00030d40 	.word	0x00030d40

08001a7c <HAL_ADC_Start>:
{
 8001a7c:	b570      	push	{r4, r5, r6, lr}
 8001a7e:	0004      	movs	r4, r0
  if (LL_ADC_REG_IsConversionOngoing(hadc->Instance) == 0UL)
 8001a80:	6800      	ldr	r0, [r0, #0]
 8001a82:	f7ff fc37 	bl	80012f4 <LL_ADC_REG_IsConversionOngoing>
 8001a86:	0006      	movs	r6, r0
    __HAL_LOCK(hadc);
 8001a88:	2002      	movs	r0, #2
  if (LL_ADC_REG_IsConversionOngoing(hadc->Instance) == 0UL)
 8001a8a:	2e00      	cmp	r6, #0
 8001a8c:	d11d      	bne.n	8001aca <HAL_ADC_Start+0x4e>
    __HAL_LOCK(hadc);
 8001a8e:	0025      	movs	r5, r4
 8001a90:	3554      	adds	r5, #84	@ 0x54
 8001a92:	782b      	ldrb	r3, [r5, #0]
 8001a94:	2b01      	cmp	r3, #1
 8001a96:	d018      	beq.n	8001aca <HAL_ADC_Start+0x4e>
 8001a98:	2301      	movs	r3, #1
    tmp_hal_status = ADC_Enable(hadc);
 8001a9a:	0020      	movs	r0, r4
    __HAL_LOCK(hadc);
 8001a9c:	702b      	strb	r3, [r5, #0]
    tmp_hal_status = ADC_Enable(hadc);
 8001a9e:	f7ff ff95 	bl	80019cc <ADC_Enable>
    if (tmp_hal_status == HAL_OK)
 8001aa2:	2800      	cmp	r0, #0
 8001aa4:	d112      	bne.n	8001acc <HAL_ADC_Start+0x50>
      ADC_STATE_CLR_SET(hadc->State,
 8001aa6:	6da2      	ldr	r2, [r4, #88]	@ 0x58
 8001aa8:	4b09      	ldr	r3, [pc, #36]	@ (8001ad0 <HAL_ADC_Start+0x54>)
 8001aaa:	401a      	ands	r2, r3
 8001aac:	2380      	movs	r3, #128	@ 0x80
 8001aae:	005b      	lsls	r3, r3, #1
 8001ab0:	4313      	orrs	r3, r2
      __HAL_ADC_CLEAR_FLAG(hadc, (ADC_FLAG_EOC | ADC_FLAG_EOS | ADC_FLAG_OVR));
 8001ab2:	221c      	movs	r2, #28
      ADC_STATE_CLR_SET(hadc->State,
 8001ab4:	65a3      	str	r3, [r4, #88]	@ 0x58
      __HAL_ADC_CLEAR_FLAG(hadc, (ADC_FLAG_EOC | ADC_FLAG_EOS | ADC_FLAG_OVR));
 8001ab6:	6823      	ldr	r3, [r4, #0]
      ADC_CLEAR_ERRORCODE(hadc);
 8001ab8:	65e0      	str	r0, [r4, #92]	@ 0x5c
      __HAL_ADC_CLEAR_FLAG(hadc, (ADC_FLAG_EOC | ADC_FLAG_EOS | ADC_FLAG_OVR));
 8001aba:	601a      	str	r2, [r3, #0]
      __HAL_UNLOCK(hadc);
 8001abc:	7028      	strb	r0, [r5, #0]
  MODIFY_REG(ADCx->CR,
 8001abe:	6899      	ldr	r1, [r3, #8]
 8001ac0:	4a04      	ldr	r2, [pc, #16]	@ (8001ad4 <HAL_ADC_Start+0x58>)
 8001ac2:	4011      	ands	r1, r2
 8001ac4:	2204      	movs	r2, #4
 8001ac6:	430a      	orrs	r2, r1
 8001ac8:	609a      	str	r2, [r3, #8]
}
 8001aca:	bd70      	pop	{r4, r5, r6, pc}
      __HAL_UNLOCK(hadc);
 8001acc:	702e      	strb	r6, [r5, #0]
 8001ace:	e7fc      	b.n	8001aca <HAL_ADC_Start+0x4e>
 8001ad0:	fffff0fe 	.word	0xfffff0fe
 8001ad4:	7fffffe8 	.word	0x7fffffe8

08001ad8 <HAL_ADCEx_LevelOutOfWindow2Callback>:
  UNUSED(hadc);

  /* NOTE : This function should not be modified. When the callback is needed,
            function HAL_ADCEx_LevelOutOfWindow2Callback must be implemented in the user file.
  */
}
 8001ad8:	4770      	bx	lr

08001ada <HAL_ADCEx_LevelOutOfWindow3Callback>:
/**
  * @brief  Analog watchdog 3 callback in non-blocking mode.
  * @param hadc ADC handle
  * @retval None
  */
__weak void HAL_ADCEx_LevelOutOfWindow3Callback(ADC_HandleTypeDef *hadc)
 8001ada:	4770      	bx	lr

08001adc <HAL_ADCEx_EndOfSamplingCallback>:
/**
  * @brief  End Of Sampling callback in non-blocking mode.
  * @param hadc ADC handle
  * @retval None
  */
__weak void HAL_ADCEx_EndOfSamplingCallback(ADC_HandleTypeDef *hadc)
 8001adc:	4770      	bx	lr

08001ade <HAL_ADCEx_ChannelConfigReadyCallback>:
/**
  * @brief  ADC channel configuration ready callback in non-blocking mode.
  * @param hadc ADC handle
  * @retval None
  */
__weak void HAL_ADCEx_ChannelConfigReadyCallback(ADC_HandleTypeDef *hadc)
 8001ade:	4770      	bx	lr

08001ae0 <HAL_NVIC_SetPriority>:
  *         with stm32c0xx devices, this parameter is a dummy value and it is ignored, because
  *         no subpriority supported in Cortex M0+ based products.
  * @retval None
  */
void HAL_NVIC_SetPriority(IRQn_Type IRQn, uint32_t PreemptPriority, uint32_t SubPriority)
{
 8001ae0:	b510      	push	{r4, lr}
 */
__STATIC_INLINE void __NVIC_SetPriority(IRQn_Type IRQn, uint32_t priority)
{
  if ((int32_t)(IRQn) >= 0)
  {
    NVIC->IP[_IP_IDX(IRQn)]  = ((uint32_t)(NVIC->IP[_IP_IDX(IRQn)]  & ~(0xFFUL << _BIT_SHIFT(IRQn))) |
 8001ae2:	24ff      	movs	r4, #255	@ 0xff
 8001ae4:	2203      	movs	r2, #3
 8001ae6:	000b      	movs	r3, r1
 8001ae8:	0021      	movs	r1, r4
 8001aea:	4002      	ands	r2, r0
 8001aec:	00d2      	lsls	r2, r2, #3
 8001aee:	4091      	lsls	r1, r2
       (((priority << (8U - __NVIC_PRIO_BITS)) & (uint32_t)0xFFUL) << _BIT_SHIFT(IRQn)));
 8001af0:	019b      	lsls	r3, r3, #6
 8001af2:	4023      	ands	r3, r4
    NVIC->IP[_IP_IDX(IRQn)]  = ((uint32_t)(NVIC->IP[_IP_IDX(IRQn)]  & ~(0xFFUL << _BIT_SHIFT(IRQn))) |
 8001af4:	43c9      	mvns	r1, r1
       (((priority << (8U - __NVIC_PRIO_BITS)) & (uint32_t)0xFFUL) << _BIT_SHIFT(IRQn)));
 8001af6:	4093      	lsls	r3, r2
  if ((int32_t)(IRQn) >= 0)
 8001af8:	2800      	cmp	r0, #0
 8001afa:	db0a      	blt.n	8001b12 <HAL_NVIC_SetPriority+0x32>
    NVIC->IP[_IP_IDX(IRQn)]  = ((uint32_t)(NVIC->IP[_IP_IDX(IRQn)]  & ~(0xFFUL << _BIT_SHIFT(IRQn))) |
 8001afc:	24c0      	movs	r4, #192	@ 0xc0
 8001afe:	4a0b      	ldr	r2, [pc, #44]	@ (8001b2c <HAL_NVIC_SetPriority+0x4c>)
 8001b00:	0880      	lsrs	r0, r0, #2
 8001b02:	0080      	lsls	r0, r0, #2
 8001b04:	1880      	adds	r0, r0, r2
 8001b06:	00a4      	lsls	r4, r4, #2
 8001b08:	5902      	ldr	r2, [r0, r4]
 8001b0a:	400a      	ands	r2, r1
 8001b0c:	4313      	orrs	r3, r2
 8001b0e:	5103      	str	r3, [r0, r4]
  /* Prevent unused argument(s) compilation warning */
  UNUSED(SubPriority);
  /* Check the parameters */
  assert_param(IS_NVIC_PREEMPTION_PRIORITY(PreemptPriority));
  NVIC_SetPriority(IRQn, PreemptPriority);
}
 8001b10:	bd10      	pop	{r4, pc}
  }
  else
  {
    SCB->SHP[_SHP_IDX(IRQn)] = ((uint32_t)(SCB->SHP[_SHP_IDX(IRQn)] & ~(0xFFUL << _BIT_SHIFT(IRQn))) |
 8001b12:	220f      	movs	r2, #15
 8001b14:	4010      	ands	r0, r2
 8001b16:	3808      	subs	r0, #8
 8001b18:	4a05      	ldr	r2, [pc, #20]	@ (8001b30 <HAL_NVIC_SetPriority+0x50>)
 8001b1a:	0880      	lsrs	r0, r0, #2
 8001b1c:	0080      	lsls	r0, r0, #2
 8001b1e:	1880      	adds	r0, r0, r2
 8001b20:	69c2      	ldr	r2, [r0, #28]
 8001b22:	4011      	ands	r1, r2
 8001b24:	4319      	orrs	r1, r3
 8001b26:	61c1      	str	r1, [r0, #28]
 8001b28:	e7f2      	b.n	8001b10 <HAL_NVIC_SetPriority+0x30>
 8001b2a:	46c0      	nop			@ (mov r8, r8)
 8001b2c:	e000e100 	.word	0xe000e100
 8001b30:	e000ed00 	.word	0xe000ed00

08001b34 <HAL_NVIC_EnableIRQ>:
  if ((int32_t)(IRQn) >= 0)
 8001b34:	2800      	cmp	r0, #0
 8001b36:	db05      	blt.n	8001b44 <HAL_NVIC_EnableIRQ+0x10>
    NVIC->ISER[0U] = (uint32_t)(1UL << (((uint32_t)IRQn) & 0x1FUL));
 8001b38:	231f      	movs	r3, #31
 8001b3a:	4018      	ands	r0, r3
 8001b3c:	3b1e      	subs	r3, #30
 8001b3e:	4083      	lsls	r3, r0
 8001b40:	4a01      	ldr	r2, [pc, #4]	@ (8001b48 <HAL_NVIC_EnableIRQ+0x14>)
 8001b42:	6013      	str	r3, [r2, #0]
  /* Check the parameters */
  assert_param(IS_NVIC_DEVICE_IRQ(IRQn));

  /* Enable interrupt */
  NVIC_EnableIRQ(IRQn);
}
 8001b44:	4770      	bx	lr
 8001b46:	46c0      	nop			@ (mov r8, r8)
 8001b48:	e000e100 	.word	0xe000e100

08001b4c <HAL_SYSTICK_Config>:
           function <b>SysTick_Config</b> is not included. In this case, the file <b><i>device</i>.h</b>
           must contain a vendor-specific implementation of this function.
 */
__STATIC_INLINE uint32_t SysTick_Config(uint32_t ticks)
{
  if ((ticks - 1UL) > SysTick_LOAD_RELOAD_Msk)
 8001b4c:	2280      	movs	r2, #128	@ 0x80
 8001b4e:	1e43      	subs	r3, r0, #1
 8001b50:	0452      	lsls	r2, r2, #17
  {
    return (1UL);                                                   /* Reload value impossible */
 8001b52:	2001      	movs	r0, #1
  if ((ticks - 1UL) > SysTick_LOAD_RELOAD_Msk)
 8001b54:	4293      	cmp	r3, r2
 8001b56:	d20d      	bcs.n	8001b74 <HAL_SYSTICK_Config+0x28>
    SCB->SHP[_SHP_IDX(IRQn)] = ((uint32_t)(SCB->SHP[_SHP_IDX(IRQn)] & ~(0xFFUL << _BIT_SHIFT(IRQn))) |
 8001b58:	21c0      	movs	r1, #192	@ 0xc0
  }

  SysTick->LOAD  = (uint32_t)(ticks - 1UL);                         /* set reload register */
 8001b5a:	4a07      	ldr	r2, [pc, #28]	@ (8001b78 <HAL_SYSTICK_Config+0x2c>)
    SCB->SHP[_SHP_IDX(IRQn)] = ((uint32_t)(SCB->SHP[_SHP_IDX(IRQn)] & ~(0xFFUL << _BIT_SHIFT(IRQn))) |
 8001b5c:	4807      	ldr	r0, [pc, #28]	@ (8001b7c <HAL_SYSTICK_Config+0x30>)
  SysTick->LOAD  = (uint32_t)(ticks - 1UL);                         /* set reload register */
 8001b5e:	6053      	str	r3, [r2, #4]
    SCB->SHP[_SHP_IDX(IRQn)] = ((uint32_t)(SCB->SHP[_SHP_IDX(IRQn)] & ~(0xFFUL << _BIT_SHIFT(IRQn))) |
 8001b60:	6a03      	ldr	r3, [r0, #32]
 8001b62:	0609      	lsls	r1, r1, #24
 8001b64:	021b      	lsls	r3, r3, #8
 8001b66:	0a1b      	lsrs	r3, r3, #8
 8001b68:	430b      	orrs	r3, r1
 8001b6a:	6203      	str	r3, [r0, #32]
  NVIC_SetPriority (SysTick_IRQn, (1UL << __NVIC_PRIO_BITS) - 1UL); /* set Priority for Systick Interrupt */
  SysTick->VAL   = 0UL;                                             /* Load the SysTick Counter Value */
 8001b6c:	2000      	movs	r0, #0
  SysTick->CTRL  = SysTick_CTRL_CLKSOURCE_Msk |
 8001b6e:	2307      	movs	r3, #7
  SysTick->VAL   = 0UL;                                             /* Load the SysTick Counter Value */
 8001b70:	6090      	str	r0, [r2, #8]
  SysTick->CTRL  = SysTick_CTRL_CLKSOURCE_Msk |
 8001b72:	6013      	str	r3, [r2, #0]
  *                  - 1  Function failed.
  */
uint32_t HAL_SYSTICK_Config(uint32_t TicksNumb)
{
  return SysTick_Config(TicksNumb);
}
 8001b74:	4770      	bx	lr
 8001b76:	46c0      	nop			@ (mov r8, r8)
 8001b78:	e000e010 	.word	0xe000e010
 8001b7c:	e000ed00 	.word	0xe000ed00

08001b80 <HAL_FLASH_Unlock>:
  * @brief  Unlock the FLASH control register access.
  * @retval HAL Status
  */
HAL_StatusTypeDef HAL_FLASH_Unlock(void)
{
  HAL_StatusTypeDef status = HAL_OK;
 8001b80:	2000      	movs	r0, #0

  if (READ_BIT(FLASH->CR, FLASH_CR_LOCK) != 0x00U)
 8001b82:	4b05      	ldr	r3, [pc, #20]	@ (8001b98 <HAL_FLASH_Unlock+0x18>)
 8001b84:	695a      	ldr	r2, [r3, #20]
 8001b86:	4282      	cmp	r2, r0
 8001b88:	da05      	bge.n	8001b96 <HAL_FLASH_Unlock+0x16>
  {
    /* Authorize the FLASH Registers access */
    WRITE_REG(FLASH->KEYR, FLASH_KEY1);
 8001b8a:	4a04      	ldr	r2, [pc, #16]	@ (8001b9c <HAL_FLASH_Unlock+0x1c>)
 8001b8c:	609a      	str	r2, [r3, #8]
    WRITE_REG(FLASH->KEYR, FLASH_KEY2);
 8001b8e:	4a04      	ldr	r2, [pc, #16]	@ (8001ba0 <HAL_FLASH_Unlock+0x20>)
 8001b90:	609a      	str	r2, [r3, #8]

    /* verify Flash is unlock */
    if (READ_BIT(FLASH->CR, FLASH_CR_LOCK) != 0x00U)
 8001b92:	6958      	ldr	r0, [r3, #20]
 8001b94:	0fc0      	lsrs	r0, r0, #31
      status = HAL_ERROR;
    }
  }

  return status;
}
 8001b96:	4770      	bx	lr
 8001b98:	40022000 	.word	0x40022000
 8001b9c:	45670123 	.word	0x45670123
 8001ba0:	cdef89ab 	.word	0xcdef89ab

08001ba4 <HAL_FLASH_Lock>:
HAL_StatusTypeDef HAL_FLASH_Lock(void)
{
  HAL_StatusTypeDef status = HAL_ERROR;

  /* Set the LOCK Bit to lock the FLASH Registers access */
  SET_BIT(FLASH->CR, FLASH_CR_LOCK);
 8001ba4:	2280      	movs	r2, #128	@ 0x80
 8001ba6:	4b04      	ldr	r3, [pc, #16]	@ (8001bb8 <HAL_FLASH_Lock+0x14>)
 8001ba8:	0612      	lsls	r2, r2, #24
 8001baa:	6959      	ldr	r1, [r3, #20]
 8001bac:	430a      	orrs	r2, r1
 8001bae:	615a      	str	r2, [r3, #20]

  /* verify Flash is locked */
  if (READ_BIT(FLASH->CR, FLASH_CR_LOCK) != 0x00u)
 8001bb0:	6958      	ldr	r0, [r3, #20]
 8001bb2:	43c0      	mvns	r0, r0
  {
    status = HAL_OK;
  }

  return status;
 8001bb4:	0fc0      	lsrs	r0, r0, #31
}
 8001bb6:	4770      	bx	lr
 8001bb8:	40022000 	.word	0x40022000

08001bbc <FLASH_WaitForLastOperation>:
  * @brief  Wait for a FLASH operation to complete.
  * @param  Timeout maximum flash operation timeout
  * @retval HAL_StatusTypeDef HAL Status
  */
HAL_StatusTypeDef FLASH_WaitForLastOperation(uint32_t Timeout)
{
 8001bbc:	b5f8      	push	{r3, r4, r5, r6, r7, lr}
 8001bbe:	0005      	movs	r5, r0
     Even if the FLASH operation fails, the BUSY flag will be reset and an error
     flag will be set */
  uint32_t timeout = HAL_GetTick() + Timeout;

  /* Wait if any operation is ongoing */
  while (__HAL_FLASH_GET_FLAG(FLASH_FLAG_BSY) != 0x00U)
 8001bc0:	2780      	movs	r7, #128	@ 0x80
  uint32_t timeout = HAL_GetTick() + Timeout;
 8001bc2:	f7ff fb77 	bl	80012b4 <HAL_GetTick>
  while (__HAL_FLASH_GET_FLAG(FLASH_FLAG_BSY) != 0x00U)
 8001bc6:	027f      	lsls	r7, r7, #9
  uint32_t timeout = HAL_GetTick() + Timeout;
 8001bc8:	1946      	adds	r6, r0, r5
  while (__HAL_FLASH_GET_FLAG(FLASH_FLAG_BSY) != 0x00U)
 8001bca:	4c11      	ldr	r4, [pc, #68]	@ (8001c10 <FLASH_WaitForLastOperation+0x54>)
 8001bcc:	6923      	ldr	r3, [r4, #16]
 8001bce:	423b      	tst	r3, r7
 8001bd0:	d005      	beq.n	8001bde <FLASH_WaitForLastOperation+0x22>
  {
    if (HAL_GetTick() >= timeout)
 8001bd2:	f7ff fb6f 	bl	80012b4 <HAL_GetTick>
 8001bd6:	42b0      	cmp	r0, r6
 8001bd8:	d3f7      	bcc.n	8001bca <FLASH_WaitForLastOperation+0xe>
    {
      return HAL_TIMEOUT;
 8001bda:	2003      	movs	r0, #3
 8001bdc:	e007      	b.n	8001bee <FLASH_WaitForLastOperation+0x32>
    }
  }

  /* check flash errors */
  error = (FLASH->SR & FLASH_FLAG_SR_ERROR);
 8001bde:	6923      	ldr	r3, [r4, #16]
 8001be0:	4a0c      	ldr	r2, [pc, #48]	@ (8001c14 <FLASH_WaitForLastOperation+0x58>)
 8001be2:	4013      	ands	r3, r2

  /* clear error flags */
  __HAL_FLASH_CLEAR_FLAG(error);
 8001be4:	6123      	str	r3, [r4, #16]

  if (error != 0x00U)
 8001be6:	d003      	beq.n	8001bf0 <FLASH_WaitForLastOperation+0x34>
  {
    /*Save the error code*/
    pFlash.ErrorCode = error;

    return HAL_ERROR;
 8001be8:	2001      	movs	r0, #1
    pFlash.ErrorCode = error;
 8001bea:	4a0b      	ldr	r2, [pc, #44]	@ (8001c18 <FLASH_WaitForLastOperation+0x5c>)
 8001bec:	6053      	str	r3, [r2, #4]
      return HAL_TIMEOUT;
    }
  }

  return HAL_OK;
}
 8001bee:	bdf8      	pop	{r3, r4, r5, r6, r7, pc}
  timeout = HAL_GetTick() + Timeout;
 8001bf0:	f7ff fb60 	bl	80012b4 <HAL_GetTick>
  while (__HAL_FLASH_GET_FLAG(FLASH_FLAG_CFGBSY) != 0x00U)
 8001bf4:	2680      	movs	r6, #128	@ 0x80
  timeout = HAL_GetTick() + Timeout;
 8001bf6:	1945      	adds	r5, r0, r5
  while (__HAL_FLASH_GET_FLAG(FLASH_FLAG_CFGBSY) != 0x00U)
 8001bf8:	02f6      	lsls	r6, r6, #11
 8001bfa:	6923      	ldr	r3, [r4, #16]
 8001bfc:	0018      	movs	r0, r3
 8001bfe:	4030      	ands	r0, r6
 8001c00:	4233      	tst	r3, r6
 8001c02:	d0f4      	beq.n	8001bee <FLASH_WaitForLastOperation+0x32>
    if (HAL_GetTick() >= timeout)
 8001c04:	f7ff fb56 	bl	80012b4 <HAL_GetTick>
 8001c08:	42a8      	cmp	r0, r5
 8001c0a:	d3f6      	bcc.n	8001bfa <FLASH_WaitForLastOperation+0x3e>
 8001c0c:	e7e5      	b.n	8001bda <FLASH_WaitForLastOperation+0x1e>
 8001c0e:	46c0      	nop			@ (mov r8, r8)
 8001c10:	40022000 	.word	0x40022000
 8001c14:	0000c3fa 	.word	0x0000c3fa
 8001c18:	2000071c 	.word	0x2000071c

08001c1c <HAL_FLASH_Program>:
{
 8001c1c:	b5f7      	push	{r0, r1, r2, r4, r5, r6, r7, lr}
  __HAL_LOCK(&pFlash);
 8001c1e:	4e17      	ldr	r6, [pc, #92]	@ (8001c7c <HAL_FLASH_Program+0x60>)
{
 8001c20:	9301      	str	r3, [sp, #4]
  __HAL_LOCK(&pFlash);
 8001c22:	7833      	ldrb	r3, [r6, #0]
{
 8001c24:	0004      	movs	r4, r0
 8001c26:	000d      	movs	r5, r1
  __HAL_LOCK(&pFlash);
 8001c28:	2002      	movs	r0, #2
{
 8001c2a:	9200      	str	r2, [sp, #0]
  __HAL_LOCK(&pFlash);
 8001c2c:	2b01      	cmp	r3, #1
 8001c2e:	d01e      	beq.n	8001c6e <HAL_FLASH_Program+0x52>
 8001c30:	2301      	movs	r3, #1
  status = FLASH_WaitForLastOperation(FLASH_TIMEOUT_VALUE);
 8001c32:	20fa      	movs	r0, #250	@ 0xfa
  __HAL_LOCK(&pFlash);
 8001c34:	7033      	strb	r3, [r6, #0]
  pFlash.ErrorCode = HAL_FLASH_ERROR_NONE;
 8001c36:	2300      	movs	r3, #0
  status = FLASH_WaitForLastOperation(FLASH_TIMEOUT_VALUE);
 8001c38:	0080      	lsls	r0, r0, #2
  pFlash.ErrorCode = HAL_FLASH_ERROR_NONE;
 8001c3a:	6073      	str	r3, [r6, #4]
  status = FLASH_WaitForLastOperation(FLASH_TIMEOUT_VALUE);
 8001c3c:	f7ff ffbe 	bl	8001bbc <FLASH_WaitForLastOperation>
  if (status == HAL_OK)
 8001c40:	2800      	cmp	r0, #0
 8001c42:	d112      	bne.n	8001c6a <HAL_FLASH_Program+0x4e>
    if (TypeProgram == FLASH_TYPEPROGRAM_DOUBLEWORD)
 8001c44:	4f0e      	ldr	r7, [pc, #56]	@ (8001c80 <HAL_FLASH_Program+0x64>)
 8001c46:	2c01      	cmp	r4, #1
 8001c48:	d112      	bne.n	8001c70 <HAL_FLASH_Program+0x54>
  * @retval None
  */
static void FLASH_Program_DoubleWord(uint32_t Address, uint64_t Data)
{
  /* Set PG bit */
  SET_BIT(FLASH->CR, FLASH_CR_PG);
 8001c4a:	697b      	ldr	r3, [r7, #20]
 8001c4c:	4323      	orrs	r3, r4
 8001c4e:	617b      	str	r3, [r7, #20]

  /* Program first word */
  *(uint32_t *)Address = (uint32_t)Data;
 8001c50:	9b00      	ldr	r3, [sp, #0]
 8001c52:	602b      	str	r3, [r5, #0]
  __ASM volatile ("isb 0xF":::"memory");
 8001c54:	f3bf 8f6f 	isb	sy
  /* Barrier to ensure programming is performed in 2 steps, in right order
    (independently of compiler optimization behavior) */
  __ISB();

  /* Program second word */
  *(uint32_t *)(Address + 4U) = (uint32_t)(Data >> 32U);
 8001c58:	9b01      	ldr	r3, [sp, #4]
 8001c5a:	606b      	str	r3, [r5, #4]
    status = FLASH_WaitForLastOperation(FLASH_TIMEOUT_VALUE);
 8001c5c:	20fa      	movs	r0, #250	@ 0xfa
 8001c5e:	0080      	lsls	r0, r0, #2
 8001c60:	f7ff ffac 	bl	8001bbc <FLASH_WaitForLastOperation>
    CLEAR_BIT(FLASH->CR, TypeProgram);
 8001c64:	697b      	ldr	r3, [r7, #20]
 8001c66:	43a3      	bics	r3, r4
 8001c68:	617b      	str	r3, [r7, #20]
  __HAL_UNLOCK(&pFlash);
 8001c6a:	2300      	movs	r3, #0
 8001c6c:	7033      	strb	r3, [r6, #0]
}
 8001c6e:	bdfe      	pop	{r1, r2, r3, r4, r5, r6, r7, pc}
      FLASH_Program_Fast(Address, (uint32_t)Data);
 8001c70:	0028      	movs	r0, r5
 8001c72:	9900      	ldr	r1, [sp, #0]
 8001c74:	f001 fea8 	bl	80039c8 <__FLASH_Program_Fast_veneer>
 8001c78:	e7f0      	b.n	8001c5c <HAL_FLASH_Program+0x40>
 8001c7a:	46c0      	nop			@ (mov r8, r8)
 8001c7c:	2000071c 	.word	0x2000071c
 8001c80:	40022000 	.word	0x40022000

08001c84 <FLASH_PageErase>:

  /* Check the parameters */
  assert_param(IS_FLASH_PAGE(Page));

  /* Get configuration register, then clear page number */
  tmp = (FLASH->CR & ~FLASH_CR_PNB);
 8001c84:	2178      	movs	r1, #120	@ 0x78
 8001c86:	4a04      	ldr	r2, [pc, #16]	@ (8001c98 <FLASH_PageErase+0x14>)

  /* Set page number, Page Erase bit & Start bit */
  FLASH->CR = (tmp | (FLASH_CR_STRT | (Page <<  FLASH_CR_PNB_Pos) | FLASH_CR_PER));
 8001c88:	00c0      	lsls	r0, r0, #3
  tmp = (FLASH->CR & ~FLASH_CR_PNB);
 8001c8a:	6953      	ldr	r3, [r2, #20]
 8001c8c:	438b      	bics	r3, r1
  FLASH->CR = (tmp | (FLASH_CR_STRT | (Page <<  FLASH_CR_PNB_Pos) | FLASH_CR_PER));
 8001c8e:	4318      	orrs	r0, r3
 8001c90:	4b02      	ldr	r3, [pc, #8]	@ (8001c9c <FLASH_PageErase+0x18>)
 8001c92:	4303      	orrs	r3, r0
 8001c94:	6153      	str	r3, [r2, #20]
}
 8001c96:	4770      	bx	lr
 8001c98:	40022000 	.word	0x40022000
 8001c9c:	00010002 	.word	0x00010002

08001ca0 <HAL_FLASHEx_Erase>:
{
 8001ca0:	b5f7      	push	{r0, r1, r2, r4, r5, r6, r7, lr}
  __HAL_LOCK(&pFlash);
 8001ca2:	4f20      	ldr	r7, [pc, #128]	@ (8001d24 <HAL_FLASHEx_Erase+0x84>)
{
 8001ca4:	0005      	movs	r5, r0
  __HAL_LOCK(&pFlash);
 8001ca6:	783b      	ldrb	r3, [r7, #0]
 8001ca8:	2402      	movs	r4, #2
{
 8001caa:	9101      	str	r1, [sp, #4]
  __HAL_LOCK(&pFlash);
 8001cac:	2b01      	cmp	r3, #1
 8001cae:	d018      	beq.n	8001ce2 <HAL_FLASHEx_Erase+0x42>
 8001cb0:	2301      	movs	r3, #1
  status = FLASH_WaitForLastOperation(FLASH_TIMEOUT_VALUE);
 8001cb2:	20fa      	movs	r0, #250	@ 0xfa
  __HAL_LOCK(&pFlash);
 8001cb4:	703b      	strb	r3, [r7, #0]
  pFlash.ErrorCode = HAL_FLASH_ERROR_NONE;
 8001cb6:	2300      	movs	r3, #0
  status = FLASH_WaitForLastOperation(FLASH_TIMEOUT_VALUE);
 8001cb8:	0080      	lsls	r0, r0, #2
  pFlash.ErrorCode = HAL_FLASH_ERROR_NONE;
 8001cba:	607b      	str	r3, [r7, #4]
  status = FLASH_WaitForLastOperation(FLASH_TIMEOUT_VALUE);
 8001cbc:	f7ff ff7e 	bl	8001bbc <FLASH_WaitForLastOperation>
 8001cc0:	1e04      	subs	r4, r0, #0
  if (status == HAL_OK)
 8001cc2:	d10c      	bne.n	8001cde <HAL_FLASHEx_Erase+0x3e>
    if (pEraseInit->TypeErase == FLASH_TYPEERASE_MASS)
 8001cc4:	682b      	ldr	r3, [r5, #0]
 8001cc6:	2b04      	cmp	r3, #4
 8001cc8:	d10d      	bne.n	8001ce6 <HAL_FLASHEx_Erase+0x46>
      status = FLASH_WaitForLastOperation(FLASH_TIMEOUT_VALUE);
 8001cca:	20fa      	movs	r0, #250	@ 0xfa
  FLASH->CR |= (FLASH_CR_STRT | FLASH_CR_MER1);
 8001ccc:	4a16      	ldr	r2, [pc, #88]	@ (8001d28 <HAL_FLASHEx_Erase+0x88>)
 8001cce:	4b17      	ldr	r3, [pc, #92]	@ (8001d2c <HAL_FLASHEx_Erase+0x8c>)
 8001cd0:	6951      	ldr	r1, [r2, #20]
      status = FLASH_WaitForLastOperation(FLASH_TIMEOUT_VALUE);
 8001cd2:	0080      	lsls	r0, r0, #2
  FLASH->CR |= (FLASH_CR_STRT | FLASH_CR_MER1);
 8001cd4:	430b      	orrs	r3, r1
 8001cd6:	6153      	str	r3, [r2, #20]
      status = FLASH_WaitForLastOperation(FLASH_TIMEOUT_VALUE);
 8001cd8:	f7ff ff70 	bl	8001bbc <FLASH_WaitForLastOperation>
 8001cdc:	0004      	movs	r4, r0
  __HAL_UNLOCK(&pFlash);
 8001cde:	2300      	movs	r3, #0
 8001ce0:	703b      	strb	r3, [r7, #0]
}
 8001ce2:	0020      	movs	r0, r4
 8001ce4:	bdfe      	pop	{r1, r2, r3, r4, r5, r6, r7, pc}
      *PageError = 0xFFFFFFFFU;
 8001ce6:	2301      	movs	r3, #1
 8001ce8:	9a01      	ldr	r2, [sp, #4]
 8001cea:	425b      	negs	r3, r3
 8001cec:	6013      	str	r3, [r2, #0]
      for (index = pEraseInit->Page; index < (pEraseInit->Page + pEraseInit->NbPages); index++)
 8001cee:	686e      	ldr	r6, [r5, #4]
 8001cf0:	686b      	ldr	r3, [r5, #4]
 8001cf2:	68aa      	ldr	r2, [r5, #8]
 8001cf4:	189b      	adds	r3, r3, r2
 8001cf6:	42b3      	cmp	r3, r6
 8001cf8:	d90b      	bls.n	8001d12 <HAL_FLASHEx_Erase+0x72>
        FLASH_PageErase(index);
 8001cfa:	0030      	movs	r0, r6
 8001cfc:	f7ff ffc2 	bl	8001c84 <FLASH_PageErase>
        status = FLASH_WaitForLastOperation(FLASH_TIMEOUT_VALUE);
 8001d00:	20fa      	movs	r0, #250	@ 0xfa
 8001d02:	0080      	lsls	r0, r0, #2
 8001d04:	f7ff ff5a 	bl	8001bbc <FLASH_WaitForLastOperation>
        if (status != HAL_OK)
 8001d08:	2800      	cmp	r0, #0
 8001d0a:	d008      	beq.n	8001d1e <HAL_FLASHEx_Erase+0x7e>
        status = FLASH_WaitForLastOperation(FLASH_TIMEOUT_VALUE);
 8001d0c:	0004      	movs	r4, r0
          *PageError = index;
 8001d0e:	9b01      	ldr	r3, [sp, #4]
 8001d10:	601e      	str	r6, [r3, #0]
      CLEAR_BIT(FLASH->CR, FLASH_CR_PER);
 8001d12:	2102      	movs	r1, #2
 8001d14:	4a04      	ldr	r2, [pc, #16]	@ (8001d28 <HAL_FLASHEx_Erase+0x88>)
 8001d16:	6953      	ldr	r3, [r2, #20]
 8001d18:	438b      	bics	r3, r1
 8001d1a:	6153      	str	r3, [r2, #20]
 8001d1c:	e7df      	b.n	8001cde <HAL_FLASHEx_Erase+0x3e>
      for (index = pEraseInit->Page; index < (pEraseInit->Page + pEraseInit->NbPages); index++)
 8001d1e:	3601      	adds	r6, #1
 8001d20:	e7e6      	b.n	8001cf0 <HAL_FLASHEx_Erase+0x50>
 8001d22:	46c0      	nop			@ (mov r8, r8)
 8001d24:	2000071c 	.word	0x2000071c
 8001d28:	40022000 	.word	0x40022000
 8001d2c:	00010004 	.word	0x00010004

08001d30 <HAL_GPIO_Init>:
  */
void HAL_GPIO_Init(GPIO_TypeDef  *GPIOx, const GPIO_InitTypeDef *pGPIO_Init)
{
  uint32_t tmp;
  uint32_t iocurrent;
  uint32_t position = 0U;
 8001d30:	2300      	movs	r3, #0
 8001d32:	469c      	mov	ip, r3
{
 8001d34:	b5f0      	push	{r4, r5, r6, r7, lr}
 8001d36:	b085      	sub	sp, #20
  assert_param(IS_GPIO_ALL_INSTANCE(GPIOx));
  assert_param(IS_GPIO_PIN(pGPIO_Init->Pin));
  assert_param(IS_GPIO_MODE(pGPIO_Init->Mode));

  /* Configure the port pins */
  while (((pGPIO_Init->Pin) >> position) != 0U)
 8001d38:	680b      	ldr	r3, [r1, #0]
 8001d3a:	4664      	mov	r4, ip
 8001d3c:	001a      	movs	r2, r3
 8001d3e:	40e2      	lsrs	r2, r4
 8001d40:	d101      	bne.n	8001d46 <HAL_GPIO_Init+0x16>
      }
    }

    position++;
  }
}
 8001d42:	b005      	add	sp, #20
 8001d44:	bdf0      	pop	{r4, r5, r6, r7, pc}
    iocurrent = (pGPIO_Init->Pin) & (1UL << position);
 8001d46:	4662      	mov	r2, ip
 8001d48:	2601      	movs	r6, #1
 8001d4a:	4096      	lsls	r6, r2
 8001d4c:	001a      	movs	r2, r3
 8001d4e:	4032      	ands	r2, r6
 8001d50:	9201      	str	r2, [sp, #4]
    if (iocurrent != 0U)
 8001d52:	4233      	tst	r3, r6
 8001d54:	d100      	bne.n	8001d58 <HAL_GPIO_Init+0x28>
 8001d56:	e080      	b.n	8001e5a <HAL_GPIO_Init+0x12a>
      if ((pGPIO_Init->Mode == GPIO_MODE_AF_PP) || (pGPIO_Init->Mode == GPIO_MODE_AF_OD))
 8001d58:	684f      	ldr	r7, [r1, #4]
 8001d5a:	2310      	movs	r3, #16
 8001d5c:	003d      	movs	r5, r7
 8001d5e:	439d      	bics	r5, r3
 8001d60:	9503      	str	r5, [sp, #12]
 8001d62:	2d02      	cmp	r5, #2
 8001d64:	d114      	bne.n	8001d90 <HAL_GPIO_Init+0x60>
        tmp = GPIOx->AFR[position >> 3U];
 8001d66:	4663      	mov	r3, ip
 8001d68:	08da      	lsrs	r2, r3, #3
 8001d6a:	0092      	lsls	r2, r2, #2
 8001d6c:	1882      	adds	r2, r0, r2
 8001d6e:	6a13      	ldr	r3, [r2, #32]
        tmp &= ~(0xFUL << ((position & 0x07U) * GPIO_AFRL_AFSEL1_Pos)) ;
 8001d70:	2407      	movs	r4, #7
        tmp = GPIOx->AFR[position >> 3U];
 8001d72:	001d      	movs	r5, r3
        tmp &= ~(0xFUL << ((position & 0x07U) * GPIO_AFRL_AFSEL1_Pos)) ;
 8001d74:	4663      	mov	r3, ip
 8001d76:	401c      	ands	r4, r3
 8001d78:	230f      	movs	r3, #15
 8001d7a:	00a4      	lsls	r4, r4, #2
 8001d7c:	40a3      	lsls	r3, r4
 8001d7e:	439d      	bics	r5, r3
 8001d80:	9502      	str	r5, [sp, #8]
        tmp |= ((pGPIO_Init->Alternate & 0x0FUL) << ((position & 0x07U) * GPIO_AFRL_AFSEL1_Pos));
 8001d82:	250f      	movs	r5, #15
 8001d84:	690b      	ldr	r3, [r1, #16]
 8001d86:	402b      	ands	r3, r5
 8001d88:	40a3      	lsls	r3, r4
 8001d8a:	9c02      	ldr	r4, [sp, #8]
 8001d8c:	4323      	orrs	r3, r4
        GPIOx->AFR[position >> 3U] = tmp;
 8001d8e:	6213      	str	r3, [r2, #32]
      tmp = GPIOx->MODER;
 8001d90:	4663      	mov	r3, ip
 8001d92:	005a      	lsls	r2, r3, #1
      tmp &= ~(GPIO_MODER_MODE0 << (position * GPIO_MODER_MODE1_Pos));
 8001d94:	2303      	movs	r3, #3
 8001d96:	4093      	lsls	r3, r2
      tmp = GPIOx->MODER;
 8001d98:	6804      	ldr	r4, [r0, #0]
      tmp &= ~(GPIO_MODER_MODE0 << (position * GPIO_MODER_MODE1_Pos));
 8001d9a:	43dd      	mvns	r5, r3
 8001d9c:	439c      	bics	r4, r3
      tmp |= ((pGPIO_Init->Mode & GPIO_MODE) << (position * GPIO_MODER_MODE1_Pos));
 8001d9e:	2303      	movs	r3, #3
 8001da0:	403b      	ands	r3, r7
 8001da2:	4093      	lsls	r3, r2
      tmp &= ~(GPIO_MODER_MODE0 << (position * GPIO_MODER_MODE1_Pos));
 8001da4:	9502      	str	r5, [sp, #8]
      if ((pGPIO_Init->Mode == GPIO_MODE_OUTPUT_PP) || (pGPIO_Init->Mode == GPIO_MODE_AF_PP) ||
 8001da6:	9d03      	ldr	r5, [sp, #12]
      tmp |= ((pGPIO_Init->Mode & GPIO_MODE) << (position * GPIO_MODER_MODE1_Pos));
 8001da8:	4323      	orrs	r3, r4
      if ((pGPIO_Init->Mode == GPIO_MODE_OUTPUT_PP) || (pGPIO_Init->Mode == GPIO_MODE_AF_PP) ||
 8001daa:	3d01      	subs	r5, #1
      GPIOx->MODER = tmp;
 8001dac:	6003      	str	r3, [r0, #0]
      if ((pGPIO_Init->Mode == GPIO_MODE_OUTPUT_PP) || (pGPIO_Init->Mode == GPIO_MODE_AF_PP) ||
 8001dae:	2d01      	cmp	r5, #1
 8001db0:	d956      	bls.n	8001e60 <HAL_GPIO_Init+0x130>
      if (pGPIO_Init->Mode != GPIO_MODE_ANALOG)
 8001db2:	2f03      	cmp	r7, #3
 8001db4:	d051      	beq.n	8001e5a <HAL_GPIO_Init+0x12a>
        tmp = GPIOx->PUPDR;
 8001db6:	68c4      	ldr	r4, [r0, #12]
        tmp &= ~(GPIO_PUPDR_PUPD0 << (position * GPIO_PUPDR_PUPD1_Pos));
 8001db8:	9b02      	ldr	r3, [sp, #8]
 8001dba:	401c      	ands	r4, r3
        tmp |= ((pGPIO_Init->Pull) << (position * GPIO_PUPDR_PUPD1_Pos));
 8001dbc:	688b      	ldr	r3, [r1, #8]
 8001dbe:	4093      	lsls	r3, r2
 8001dc0:	4323      	orrs	r3, r4
        GPIOx->PUPDR = tmp;
 8001dc2:	60c3      	str	r3, [r0, #12]
      if ((pGPIO_Init->Mode & EXTI_MODE) == EXTI_MODE)
 8001dc4:	2380      	movs	r3, #128	@ 0x80
 8001dc6:	055b      	lsls	r3, r3, #21
 8001dc8:	421f      	tst	r7, r3
 8001dca:	d046      	beq.n	8001e5a <HAL_GPIO_Init+0x12a>
        tmp = EXTI->EXTICR[position >> 2U];
 8001dcc:	4663      	mov	r3, ip
 8001dce:	089a      	lsrs	r2, r3, #2
 8001dd0:	4b2b      	ldr	r3, [pc, #172]	@ (8001e80 <HAL_GPIO_Init+0x150>)
 8001dd2:	0092      	lsls	r2, r2, #2
 8001dd4:	18d2      	adds	r2, r2, r3
        tmp &= ~((0x0FUL) << ((position & 0x03U) * EXTI_EXTICR1_EXTI1_Pos));
 8001dd6:	2403      	movs	r4, #3
 8001dd8:	4663      	mov	r3, ip
 8001dda:	401c      	ands	r4, r3
 8001ddc:	230f      	movs	r3, #15
 8001dde:	00e4      	lsls	r4, r4, #3
 8001de0:	40a3      	lsls	r3, r4
        tmp |= (GPIO_GET_INDEX(GPIOx) << ((position & 0x03U) * EXTI_EXTICR1_EXTI1_Pos));
 8001de2:	26a0      	movs	r6, #160	@ 0xa0
        tmp = EXTI->EXTICR[position >> 2U];
 8001de4:	6e15      	ldr	r5, [r2, #96]	@ 0x60
        tmp |= (GPIO_GET_INDEX(GPIOx) << ((position & 0x03U) * EXTI_EXTICR1_EXTI1_Pos));
 8001de6:	05f6      	lsls	r6, r6, #23
        tmp &= ~((0x0FUL) << ((position & 0x03U) * EXTI_EXTICR1_EXTI1_Pos));
 8001de8:	439d      	bics	r5, r3
        tmp |= (GPIO_GET_INDEX(GPIOx) << ((position & 0x03U) * EXTI_EXTICR1_EXTI1_Pos));
 8001dea:	2300      	movs	r3, #0
 8001dec:	42b0      	cmp	r0, r6
 8001dee:	d00c      	beq.n	8001e0a <HAL_GPIO_Init+0xda>
 8001df0:	4e24      	ldr	r6, [pc, #144]	@ (8001e84 <HAL_GPIO_Init+0x154>)
 8001df2:	3301      	adds	r3, #1
 8001df4:	42b0      	cmp	r0, r6
 8001df6:	d008      	beq.n	8001e0a <HAL_GPIO_Init+0xda>
 8001df8:	4e23      	ldr	r6, [pc, #140]	@ (8001e88 <HAL_GPIO_Init+0x158>)
 8001dfa:	3301      	adds	r3, #1
 8001dfc:	42b0      	cmp	r0, r6
 8001dfe:	d004      	beq.n	8001e0a <HAL_GPIO_Init+0xda>
 8001e00:	4b22      	ldr	r3, [pc, #136]	@ (8001e8c <HAL_GPIO_Init+0x15c>)
 8001e02:	18c3      	adds	r3, r0, r3
 8001e04:	1e5e      	subs	r6, r3, #1
 8001e06:	41b3      	sbcs	r3, r6
 8001e08:	3305      	adds	r3, #5
 8001e0a:	40a3      	lsls	r3, r4
 8001e0c:	432b      	orrs	r3, r5
        EXTI->EXTICR[position >> 2U] = tmp;
 8001e0e:	6613      	str	r3, [r2, #96]	@ 0x60
        tmp = EXTI->IMR1;
 8001e10:	4b1f      	ldr	r3, [pc, #124]	@ (8001e90 <HAL_GPIO_Init+0x160>)
        tmp &= ~((uint32_t)iocurrent);
 8001e12:	9a01      	ldr	r2, [sp, #4]
        tmp = EXTI->IMR1;
 8001e14:	6fdd      	ldr	r5, [r3, #124]	@ 0x7c
          tmp |= iocurrent;
 8001e16:	9c01      	ldr	r4, [sp, #4]
        tmp &= ~((uint32_t)iocurrent);
 8001e18:	43d2      	mvns	r2, r2
          tmp |= iocurrent;
 8001e1a:	432c      	orrs	r4, r5
        if ((pGPIO_Init->Mode & GPIO_MODE_IT) == GPIO_MODE_IT)
 8001e1c:	03fe      	lsls	r6, r7, #15
 8001e1e:	d401      	bmi.n	8001e24 <HAL_GPIO_Init+0xf4>
        tmp &= ~((uint32_t)iocurrent);
 8001e20:	002c      	movs	r4, r5
 8001e22:	4014      	ands	r4, r2
        EXTI->IMR1 = tmp;
 8001e24:	67dc      	str	r4, [r3, #124]	@ 0x7c
        tmp = EXTI->EMR1;
 8001e26:	4c1b      	ldr	r4, [pc, #108]	@ (8001e94 <HAL_GPIO_Init+0x164>)
          tmp |= iocurrent;
 8001e28:	9d01      	ldr	r5, [sp, #4]
        tmp = EXTI->EMR1;
 8001e2a:	6fe3      	ldr	r3, [r4, #124]	@ 0x7c
          tmp |= iocurrent;
 8001e2c:	431d      	orrs	r5, r3
        if ((pGPIO_Init->Mode & GPIO_MODE_EVT) == GPIO_MODE_EVT)
 8001e2e:	03be      	lsls	r6, r7, #14
 8001e30:	d401      	bmi.n	8001e36 <HAL_GPIO_Init+0x106>
        tmp &= ~((uint32_t)iocurrent);
 8001e32:	4013      	ands	r3, r2
 8001e34:	001d      	movs	r5, r3
        EXTI->EMR1 = tmp;
 8001e36:	4b12      	ldr	r3, [pc, #72]	@ (8001e80 <HAL_GPIO_Init+0x150>)
 8001e38:	67e5      	str	r5, [r4, #124]	@ 0x7c
        tmp = EXTI->RTSR1;
 8001e3a:	681d      	ldr	r5, [r3, #0]
          tmp |= iocurrent;
 8001e3c:	9c01      	ldr	r4, [sp, #4]
 8001e3e:	432c      	orrs	r4, r5
        if ((pGPIO_Init->Mode & RISING_EDGE) == RISING_EDGE)
 8001e40:	02fe      	lsls	r6, r7, #11
 8001e42:	d401      	bmi.n	8001e48 <HAL_GPIO_Init+0x118>
        tmp &= ~((uint32_t)iocurrent);
 8001e44:	002c      	movs	r4, r5
 8001e46:	4014      	ands	r4, r2
        EXTI->RTSR1 = tmp;
 8001e48:	601c      	str	r4, [r3, #0]
        tmp = EXTI->FTSR1;
 8001e4a:	685c      	ldr	r4, [r3, #4]
          tmp |= iocurrent;
 8001e4c:	9d01      	ldr	r5, [sp, #4]
 8001e4e:	4325      	orrs	r5, r4
        if ((pGPIO_Init->Mode & FALLING_EDGE) == FALLING_EDGE)
 8001e50:	02bf      	lsls	r7, r7, #10
 8001e52:	d401      	bmi.n	8001e58 <HAL_GPIO_Init+0x128>
        tmp &= ~((uint32_t)iocurrent);
 8001e54:	4014      	ands	r4, r2
 8001e56:	0025      	movs	r5, r4
        EXTI->FTSR1 = tmp;
 8001e58:	605d      	str	r5, [r3, #4]
    position++;
 8001e5a:	2301      	movs	r3, #1
 8001e5c:	449c      	add	ip, r3
 8001e5e:	e76b      	b.n	8001d38 <HAL_GPIO_Init+0x8>
        tmp = GPIOx->OSPEEDR;
 8001e60:	6884      	ldr	r4, [r0, #8]
        tmp &= ~(GPIO_OSPEEDR_OSPEED0 << (position * GPIO_OSPEEDR_OSPEED1_Pos));
 8001e62:	9b02      	ldr	r3, [sp, #8]
        tmp |= (((pGPIO_Init->Mode & GPIO_OUTPUT_TYPE) >> 4U) << position);
 8001e64:	4665      	mov	r5, ip
        tmp &= ~(GPIO_OSPEEDR_OSPEED0 << (position * GPIO_OSPEEDR_OSPEED1_Pos));
 8001e66:	401c      	ands	r4, r3
        tmp |= (pGPIO_Init->Speed << (position * GPIO_OSPEEDR_OSPEED1_Pos));
 8001e68:	68cb      	ldr	r3, [r1, #12]
 8001e6a:	4093      	lsls	r3, r2
 8001e6c:	4323      	orrs	r3, r4
        GPIOx->OSPEEDR = tmp;
 8001e6e:	6083      	str	r3, [r0, #8]
        tmp |= (((pGPIO_Init->Mode & GPIO_OUTPUT_TYPE) >> 4U) << position);
 8001e70:	093b      	lsrs	r3, r7, #4
 8001e72:	40ab      	lsls	r3, r5
        tmp = GPIOx->OTYPER;
 8001e74:	6844      	ldr	r4, [r0, #4]
        tmp &= ~(GPIO_OTYPER_OT0 << position) ;
 8001e76:	43b4      	bics	r4, r6
        tmp |= (((pGPIO_Init->Mode & GPIO_OUTPUT_TYPE) >> 4U) << position);
 8001e78:	4323      	orrs	r3, r4
        GPIOx->OTYPER = tmp;
 8001e7a:	6043      	str	r3, [r0, #4]
      if (pGPIO_Init->Mode != GPIO_MODE_ANALOG)
 8001e7c:	e79b      	b.n	8001db6 <HAL_GPIO_Init+0x86>
 8001e7e:	46c0      	nop			@ (mov r8, r8)
 8001e80:	40021800 	.word	0x40021800
 8001e84:	50000400 	.word	0x50000400
 8001e88:	50000800 	.word	0x50000800
 8001e8c:	afffec00 	.word	0xafffec00
 8001e90:	40021804 	.word	0x40021804
 8001e94:	40021808 	.word	0x40021808

08001e98 <HAL_GPIO_EXTI_Rising_Callback>:
  UNUSED(GPIO_Pin);

  /* NOTE: This function should not be modified, when the callback is needed,
           the HAL_GPIO_EXTI_Rising_Callback could be implemented in the user file
   */
}
 8001e98:	4770      	bx	lr

08001e9a <HAL_GPIO_EXTI_Falling_Callback>:
/**
  * @brief  EXTI line detection callback.
  * @param  GPIO_Pin Specifies the port pin connected to corresponding EXTI line.
  * @retval None
  */
__weak void HAL_GPIO_EXTI_Falling_Callback(uint16_t GPIO_Pin)
 8001e9a:	4770      	bx	lr

08001e9c <HAL_GPIO_EXTI_IRQHandler>:
{
 8001e9c:	b570      	push	{r4, r5, r6, lr}
  if (__HAL_GPIO_EXTI_GET_RISING_IT(GPIO_Pin) != 0U)
 8001e9e:	4d08      	ldr	r5, [pc, #32]	@ (8001ec0 <HAL_GPIO_EXTI_IRQHandler+0x24>)
{
 8001ea0:	0004      	movs	r4, r0
  if (__HAL_GPIO_EXTI_GET_RISING_IT(GPIO_Pin) != 0U)
 8001ea2:	68eb      	ldr	r3, [r5, #12]
 8001ea4:	4218      	tst	r0, r3
 8001ea6:	d002      	beq.n	8001eae <HAL_GPIO_EXTI_IRQHandler+0x12>
    __HAL_GPIO_EXTI_CLEAR_RISING_IT(GPIO_Pin);
 8001ea8:	60e8      	str	r0, [r5, #12]
    HAL_GPIO_EXTI_Rising_Callback(GPIO_Pin);
 8001eaa:	f7ff fff5 	bl	8001e98 <HAL_GPIO_EXTI_Rising_Callback>
  if (__HAL_GPIO_EXTI_GET_FALLING_IT(GPIO_Pin) != 0U)
 8001eae:	692b      	ldr	r3, [r5, #16]
 8001eb0:	4223      	tst	r3, r4
 8001eb2:	d003      	beq.n	8001ebc <HAL_GPIO_EXTI_IRQHandler+0x20>
    HAL_GPIO_EXTI_Falling_Callback(GPIO_Pin);
 8001eb4:	0020      	movs	r0, r4
    __HAL_GPIO_EXTI_CLEAR_FALLING_IT(GPIO_Pin);
 8001eb6:	612c      	str	r4, [r5, #16]
    HAL_GPIO_EXTI_Falling_Callback(GPIO_Pin);
 8001eb8:	f7ff ffef 	bl	8001e9a <HAL_GPIO_EXTI_Falling_Callback>
}
 8001ebc:	bd70      	pop	{r4, r5, r6, pc}
 8001ebe:	46c0      	nop			@ (mov r8, r8)
 8001ec0:	40021800 	.word	0x40021800

08001ec4 <I2C_Flush_TXDR>:
  */
static void I2C_Flush_TXDR(I2C_HandleTypeDef *hi2c)
{
  /* If a pending TXIS flag is set */
  /* Write a dummy data in TXDR to clear it */
  if (__HAL_I2C_GET_FLAG(hi2c, I2C_FLAG_TXIS) != RESET)
 8001ec4:	6803      	ldr	r3, [r0, #0]
 8001ec6:	699a      	ldr	r2, [r3, #24]
 8001ec8:	0792      	lsls	r2, r2, #30
 8001eca:	d501      	bpl.n	8001ed0 <I2C_Flush_TXDR+0xc>
  {
    hi2c->Instance->TXDR = 0x00U;
 8001ecc:	2200      	movs	r2, #0
 8001ece:	629a      	str	r2, [r3, #40]	@ 0x28
  }

  /* Flush TX register if not empty */
  if (__HAL_I2C_GET_FLAG(hi2c, I2C_FLAG_TXE) == RESET)
 8001ed0:	2201      	movs	r2, #1
 8001ed2:	6999      	ldr	r1, [r3, #24]
 8001ed4:	4211      	tst	r1, r2
 8001ed6:	d102      	bne.n	8001ede <I2C_Flush_TXDR+0x1a>
  {
    __HAL_I2C_CLEAR_FLAG(hi2c, I2C_FLAG_TXE);
 8001ed8:	6999      	ldr	r1, [r3, #24]
 8001eda:	430a      	orrs	r2, r1
 8001edc:	619a      	str	r2, [r3, #24]
  }
}
 8001ede:	4770      	bx	lr

08001ee0 <I2C_TransferConfig>:
  *     @arg @ref I2C_GENERATE_START_WRITE Generate Restart for write request.
  * @retval None
  */
static void I2C_TransferConfig(I2C_HandleTypeDef *hi2c, uint16_t DevAddress, uint8_t Size, uint32_t Mode,
                               uint32_t Request)
{
 8001ee0:	b530      	push	{r4, r5, lr}
 8001ee2:	9c03      	ldr	r4, [sp, #12]
  tmp = ((uint32_t)(((uint32_t)DevAddress & I2C_CR2_SADD) | \
                    (((uint32_t)Size << I2C_CR2_NBYTES_Pos) & I2C_CR2_NBYTES) | \
                    (uint32_t)Mode | (uint32_t)Request) & (~0x80000000U));

  /* update CR2 register */
  MODIFY_REG(hi2c->Instance->CR2, \
 8001ee4:	6800      	ldr	r0, [r0, #0]
  tmp = ((uint32_t)(((uint32_t)DevAddress & I2C_CR2_SADD) | \
 8001ee6:	4323      	orrs	r3, r4
                    (((uint32_t)Size << I2C_CR2_NBYTES_Pos) & I2C_CR2_NBYTES) | \
 8001ee8:	0412      	lsls	r2, r2, #16
  tmp = ((uint32_t)(((uint32_t)DevAddress & I2C_CR2_SADD) | \
 8001eea:	0589      	lsls	r1, r1, #22
 8001eec:	431a      	orrs	r2, r3
 8001eee:	0d89      	lsrs	r1, r1, #22
  MODIFY_REG(hi2c->Instance->CR2, \
 8001ef0:	4b05      	ldr	r3, [pc, #20]	@ (8001f08 <I2C_TransferConfig+0x28>)
 8001ef2:	6845      	ldr	r5, [r0, #4]
  tmp = ((uint32_t)(((uint32_t)DevAddress & I2C_CR2_SADD) | \
 8001ef4:	430a      	orrs	r2, r1
  MODIFY_REG(hi2c->Instance->CR2, \
 8001ef6:	0d64      	lsrs	r4, r4, #21
 8001ef8:	4323      	orrs	r3, r4
  tmp = ((uint32_t)(((uint32_t)DevAddress & I2C_CR2_SADD) | \
 8001efa:	0052      	lsls	r2, r2, #1
  MODIFY_REG(hi2c->Instance->CR2, \
 8001efc:	439d      	bics	r5, r3
  tmp = ((uint32_t)(((uint32_t)DevAddress & I2C_CR2_SADD) | \
 8001efe:	0852      	lsrs	r2, r2, #1
  MODIFY_REG(hi2c->Instance->CR2, \
 8001f00:	432a      	orrs	r2, r5
 8001f02:	6042      	str	r2, [r0, #4]
             ((I2C_CR2_SADD | I2C_CR2_NBYTES | I2C_CR2_RELOAD | I2C_CR2_AUTOEND | \
               (I2C_CR2_RD_WRN & (uint32_t)(Request >> (31U - I2C_CR2_RD_WRN_Pos))) | \
               I2C_CR2_START | I2C_CR2_STOP)), tmp);
}
 8001f04:	bd30      	pop	{r4, r5, pc}
 8001f06:	46c0      	nop			@ (mov r8, r8)
 8001f08:	03ff63ff 	.word	0x03ff63ff

08001f0c <I2C_IsErrorOccurred>:
{
 8001f0c:	b5f7      	push	{r0, r1, r2, r4, r5, r6, r7, lr}
 8001f0e:	0015      	movs	r5, r2
  uint32_t itflag   = hi2c->Instance->ISR;
 8001f10:	6802      	ldr	r2, [r0, #0]
{
 8001f12:	000e      	movs	r6, r1
  uint32_t itflag   = hi2c->Instance->ISR;
 8001f14:	6991      	ldr	r1, [r2, #24]
  if (HAL_IS_BIT_SET(itflag, I2C_FLAG_AF))
 8001f16:	2310      	movs	r3, #16
 8001f18:	000f      	movs	r7, r1
{
 8001f1a:	0004      	movs	r4, r0
  if (HAL_IS_BIT_SET(itflag, I2C_FLAG_AF))
 8001f1c:	401f      	ands	r7, r3
  HAL_StatusTypeDef status = HAL_OK;
 8001f1e:	2000      	movs	r0, #0
  if (HAL_IS_BIT_SET(itflag, I2C_FLAG_AF))
 8001f20:	4219      	tst	r1, r3
 8001f22:	d00d      	beq.n	8001f40 <I2C_IsErrorOccurred+0x34>
  HAL_StatusTypeDef status = HAL_OK;
 8001f24:	0007      	movs	r7, r0
    __HAL_I2C_CLEAR_FLAG(hi2c, I2C_FLAG_AF);
 8001f26:	61d3      	str	r3, [r2, #28]
  uint32_t error_code = 0;
 8001f28:	9001      	str	r0, [sp, #4]
    while ((__HAL_I2C_GET_FLAG(hi2c, I2C_FLAG_STOPF) == RESET) && (status == HAL_OK))
 8001f2a:	6823      	ldr	r3, [r4, #0]
 8001f2c:	2120      	movs	r1, #32
 8001f2e:	699a      	ldr	r2, [r3, #24]
 8001f30:	420a      	tst	r2, r1
 8001f32:	d15f      	bne.n	8001ff4 <I2C_IsErrorOccurred+0xe8>
 8001f34:	2f00      	cmp	r7, #0
 8001f36:	d031      	beq.n	8001f9c <I2C_IsErrorOccurred+0x90>
    error_code |= HAL_I2C_ERROR_AF;
 8001f38:	2704      	movs	r7, #4
    status = HAL_ERROR;
 8001f3a:	2001      	movs	r0, #1
    error_code |= HAL_I2C_ERROR_AF;
 8001f3c:	9b01      	ldr	r3, [sp, #4]
 8001f3e:	431f      	orrs	r7, r3
  if (HAL_IS_BIT_SET(itflag, I2C_FLAG_BERR))
 8001f40:	2280      	movs	r2, #128	@ 0x80
  itflag = hi2c->Instance->ISR;
 8001f42:	6825      	ldr	r5, [r4, #0]
  if (HAL_IS_BIT_SET(itflag, I2C_FLAG_BERR))
 8001f44:	0052      	lsls	r2, r2, #1
  itflag = hi2c->Instance->ISR;
 8001f46:	69ab      	ldr	r3, [r5, #24]
  if (HAL_IS_BIT_SET(itflag, I2C_FLAG_BERR))
 8001f48:	4213      	tst	r3, r2
 8001f4a:	d002      	beq.n	8001f52 <I2C_IsErrorOccurred+0x46>
    error_code |= HAL_I2C_ERROR_BERR;
 8001f4c:	2001      	movs	r0, #1
    __HAL_I2C_CLEAR_FLAG(hi2c, I2C_FLAG_BERR);
 8001f4e:	61ea      	str	r2, [r5, #28]
    error_code |= HAL_I2C_ERROR_BERR;
 8001f50:	4307      	orrs	r7, r0
  if (HAL_IS_BIT_SET(itflag, I2C_FLAG_OVR))
 8001f52:	2280      	movs	r2, #128	@ 0x80
 8001f54:	00d2      	lsls	r2, r2, #3
 8001f56:	4213      	tst	r3, r2
 8001f58:	d003      	beq.n	8001f62 <I2C_IsErrorOccurred+0x56>
    error_code |= HAL_I2C_ERROR_OVR;
 8001f5a:	2108      	movs	r1, #8
    status = HAL_ERROR;
 8001f5c:	2001      	movs	r0, #1
    error_code |= HAL_I2C_ERROR_OVR;
 8001f5e:	430f      	orrs	r7, r1
    __HAL_I2C_CLEAR_FLAG(hi2c, I2C_FLAG_OVR);
 8001f60:	61ea      	str	r2, [r5, #28]
  if (HAL_IS_BIT_SET(itflag, I2C_FLAG_ARLO))
 8001f62:	2280      	movs	r2, #128	@ 0x80
 8001f64:	0092      	lsls	r2, r2, #2
 8001f66:	4213      	tst	r3, r2
 8001f68:	d049      	beq.n	8001ffe <I2C_IsErrorOccurred+0xf2>
    error_code |= HAL_I2C_ERROR_ARLO;
 8001f6a:	2302      	movs	r3, #2
    __HAL_I2C_CLEAR_FLAG(hi2c, I2C_FLAG_ARLO);
 8001f6c:	61ea      	str	r2, [r5, #28]
    error_code |= HAL_I2C_ERROR_ARLO;
 8001f6e:	431f      	orrs	r7, r3
    I2C_Flush_TXDR(hi2c);
 8001f70:	0020      	movs	r0, r4
 8001f72:	f7ff ffa7 	bl	8001ec4 <I2C_Flush_TXDR>
    I2C_RESET_CR2(hi2c);
 8001f76:	686b      	ldr	r3, [r5, #4]
 8001f78:	4a22      	ldr	r2, [pc, #136]	@ (8002004 <I2C_IsErrorOccurred+0xf8>)
    __HAL_UNLOCK(hi2c);
 8001f7a:	2001      	movs	r0, #1
    I2C_RESET_CR2(hi2c);
 8001f7c:	4013      	ands	r3, r2
 8001f7e:	606b      	str	r3, [r5, #4]
    hi2c->ErrorCode |= error_code;
 8001f80:	6c63      	ldr	r3, [r4, #68]	@ 0x44
    hi2c->State = HAL_I2C_STATE_READY;
 8001f82:	2220      	movs	r2, #32
    hi2c->ErrorCode |= error_code;
 8001f84:	433b      	orrs	r3, r7
 8001f86:	6463      	str	r3, [r4, #68]	@ 0x44
    hi2c->State = HAL_I2C_STATE_READY;
 8001f88:	0023      	movs	r3, r4
 8001f8a:	3341      	adds	r3, #65	@ 0x41
 8001f8c:	701a      	strb	r2, [r3, #0]
    hi2c->Mode = HAL_I2C_MODE_NONE;
 8001f8e:	0022      	movs	r2, r4
 8001f90:	2300      	movs	r3, #0
 8001f92:	3242      	adds	r2, #66	@ 0x42
    __HAL_UNLOCK(hi2c);
 8001f94:	3440      	adds	r4, #64	@ 0x40
    hi2c->Mode = HAL_I2C_MODE_NONE;
 8001f96:	7013      	strb	r3, [r2, #0]
    __HAL_UNLOCK(hi2c);
 8001f98:	7023      	strb	r3, [r4, #0]
 8001f9a:	e032      	b.n	8002002 <I2C_IsErrorOccurred+0xf6>
      if (Timeout != HAL_MAX_DELAY)
 8001f9c:	1c72      	adds	r2, r6, #1
 8001f9e:	d0c5      	beq.n	8001f2c <I2C_IsErrorOccurred+0x20>
        if (((HAL_GetTick() - tickstart) > Timeout) || (Timeout == 0U))
 8001fa0:	f7ff f988 	bl	80012b4 <HAL_GetTick>
 8001fa4:	1b40      	subs	r0, r0, r5
 8001fa6:	42b0      	cmp	r0, r6
 8001fa8:	d801      	bhi.n	8001fae <I2C_IsErrorOccurred+0xa2>
 8001faa:	2e00      	cmp	r6, #0
 8001fac:	d1bd      	bne.n	8001f2a <I2C_IsErrorOccurred+0x1e>
          tmp2 = hi2c->Mode;
 8001fae:	0022      	movs	r2, r4
          tmp1 = (uint32_t)(hi2c->Instance->CR2 & I2C_CR2_STOP);
 8001fb0:	6823      	ldr	r3, [r4, #0]
          tmp2 = hi2c->Mode;
 8001fb2:	3242      	adds	r2, #66	@ 0x42
          tmp1 = (uint32_t)(hi2c->Instance->CR2 & I2C_CR2_STOP);
 8001fb4:	6858      	ldr	r0, [r3, #4]
          tmp2 = hi2c->Mode;
 8001fb6:	7811      	ldrb	r1, [r2, #0]
          if ((__HAL_I2C_GET_FLAG(hi2c, I2C_FLAG_BUSY) != RESET) && \
 8001fb8:	699a      	ldr	r2, [r3, #24]
          tmp2 = hi2c->Mode;
 8001fba:	b2c9      	uxtb	r1, r1
          if ((__HAL_I2C_GET_FLAG(hi2c, I2C_FLAG_BUSY) != RESET) && \
 8001fbc:	0412      	lsls	r2, r2, #16
 8001fbe:	d50b      	bpl.n	8001fd8 <I2C_IsErrorOccurred+0xcc>
          tmp1 = (uint32_t)(hi2c->Instance->CR2 & I2C_CR2_STOP);
 8001fc0:	2280      	movs	r2, #128	@ 0x80
 8001fc2:	01d2      	lsls	r2, r2, #7
          if ((__HAL_I2C_GET_FLAG(hi2c, I2C_FLAG_BUSY) != RESET) && \
 8001fc4:	4210      	tst	r0, r2
 8001fc6:	d107      	bne.n	8001fd8 <I2C_IsErrorOccurred+0xcc>
              (tmp1 != I2C_CR2_STOP) && \
 8001fc8:	2920      	cmp	r1, #32
 8001fca:	d005      	beq.n	8001fd8 <I2C_IsErrorOccurred+0xcc>
            hi2c->Instance->CR2 |= I2C_CR2_STOP;
 8001fcc:	6859      	ldr	r1, [r3, #4]
 8001fce:	430a      	orrs	r2, r1
 8001fd0:	605a      	str	r2, [r3, #4]
            tickstart = HAL_GetTick();
 8001fd2:	f7ff f96f 	bl	80012b4 <HAL_GetTick>
 8001fd6:	0005      	movs	r5, r0
          while (__HAL_I2C_GET_FLAG(hi2c, I2C_FLAG_STOPF) == RESET)
 8001fd8:	2220      	movs	r2, #32
 8001fda:	6823      	ldr	r3, [r4, #0]
 8001fdc:	699b      	ldr	r3, [r3, #24]
 8001fde:	4213      	tst	r3, r2
 8001fe0:	d1a3      	bne.n	8001f2a <I2C_IsErrorOccurred+0x1e>
            if ((HAL_GetTick() - tickstart) > I2C_TIMEOUT_STOPF)
 8001fe2:	f7ff f967 	bl	80012b4 <HAL_GetTick>
 8001fe6:	1b40      	subs	r0, r0, r5
 8001fe8:	2819      	cmp	r0, #25
 8001fea:	d9f5      	bls.n	8001fd8 <I2C_IsErrorOccurred+0xcc>
              error_code |= HAL_I2C_ERROR_TIMEOUT;
 8001fec:	2320      	movs	r3, #32
              status = HAL_ERROR;
 8001fee:	2701      	movs	r7, #1
              error_code |= HAL_I2C_ERROR_TIMEOUT;
 8001ff0:	9301      	str	r3, [sp, #4]
 8001ff2:	e79a      	b.n	8001f2a <I2C_IsErrorOccurred+0x1e>
    if (status == HAL_OK)
 8001ff4:	2f00      	cmp	r7, #0
 8001ff6:	d19f      	bne.n	8001f38 <I2C_IsErrorOccurred+0x2c>
      __HAL_I2C_CLEAR_FLAG(hi2c, I2C_FLAG_STOPF);
 8001ff8:	2220      	movs	r2, #32
 8001ffa:	61da      	str	r2, [r3, #28]
 8001ffc:	e79c      	b.n	8001f38 <I2C_IsErrorOccurred+0x2c>
  if (status != HAL_OK)
 8001ffe:	2800      	cmp	r0, #0
 8002000:	d1b6      	bne.n	8001f70 <I2C_IsErrorOccurred+0x64>
}
 8002002:	bdfe      	pop	{r1, r2, r3, r4, r5, r6, r7, pc}
 8002004:	fe00e800 	.word	0xfe00e800

08002008 <I2C_WaitOnTXISFlagUntilTimeout>:
{
 8002008:	b5f8      	push	{r3, r4, r5, r6, r7, lr}
 800200a:	0004      	movs	r4, r0
 800200c:	000d      	movs	r5, r1
 800200e:	0016      	movs	r6, r2
  while (__HAL_I2C_GET_FLAG(hi2c, I2C_FLAG_TXIS) == RESET)
 8002010:	2702      	movs	r7, #2
 8002012:	6823      	ldr	r3, [r4, #0]
 8002014:	699b      	ldr	r3, [r3, #24]
 8002016:	423b      	tst	r3, r7
 8002018:	d001      	beq.n	800201e <I2C_WaitOnTXISFlagUntilTimeout+0x16>
  return HAL_OK;
 800201a:	2000      	movs	r0, #0
 800201c:	e021      	b.n	8002062 <I2C_WaitOnTXISFlagUntilTimeout+0x5a>
    if (I2C_IsErrorOccurred(hi2c, Timeout, Tickstart) != HAL_OK)
 800201e:	0032      	movs	r2, r6
 8002020:	0029      	movs	r1, r5
 8002022:	0020      	movs	r0, r4
 8002024:	f7ff ff72 	bl	8001f0c <I2C_IsErrorOccurred>
 8002028:	2800      	cmp	r0, #0
 800202a:	d119      	bne.n	8002060 <I2C_WaitOnTXISFlagUntilTimeout+0x58>
    if (Timeout != HAL_MAX_DELAY)
 800202c:	1c6b      	adds	r3, r5, #1
 800202e:	d0f0      	beq.n	8002012 <I2C_WaitOnTXISFlagUntilTimeout+0xa>
      if (((HAL_GetTick() - Tickstart) > Timeout) || (Timeout == 0U))
 8002030:	f7ff f940 	bl	80012b4 <HAL_GetTick>
 8002034:	1b80      	subs	r0, r0, r6
 8002036:	42a8      	cmp	r0, r5
 8002038:	d801      	bhi.n	800203e <I2C_WaitOnTXISFlagUntilTimeout+0x36>
 800203a:	2d00      	cmp	r5, #0
 800203c:	d1e9      	bne.n	8002012 <I2C_WaitOnTXISFlagUntilTimeout+0xa>
        if (__HAL_I2C_GET_FLAG(hi2c, I2C_FLAG_TXIS) == RESET)
 800203e:	6823      	ldr	r3, [r4, #0]
 8002040:	6999      	ldr	r1, [r3, #24]
 8002042:	2302      	movs	r3, #2
 8002044:	000a      	movs	r2, r1
 8002046:	401a      	ands	r2, r3
 8002048:	4219      	tst	r1, r3
 800204a:	d1e2      	bne.n	8002012 <I2C_WaitOnTXISFlagUntilTimeout+0xa>
          hi2c->ErrorCode |= HAL_I2C_ERROR_TIMEOUT;
 800204c:	2120      	movs	r1, #32
 800204e:	6c63      	ldr	r3, [r4, #68]	@ 0x44
 8002050:	430b      	orrs	r3, r1
 8002052:	6463      	str	r3, [r4, #68]	@ 0x44
          hi2c->State = HAL_I2C_STATE_READY;
 8002054:	0023      	movs	r3, r4
          __HAL_UNLOCK(hi2c);
 8002056:	3440      	adds	r4, #64	@ 0x40
          hi2c->State = HAL_I2C_STATE_READY;
 8002058:	3341      	adds	r3, #65	@ 0x41
 800205a:	7019      	strb	r1, [r3, #0]
          hi2c->Mode = HAL_I2C_MODE_NONE;
 800205c:	705a      	strb	r2, [r3, #1]
          __HAL_UNLOCK(hi2c);
 800205e:	7022      	strb	r2, [r4, #0]
      return HAL_ERROR;
 8002060:	2001      	movs	r0, #1
}
 8002062:	bdf8      	pop	{r3, r4, r5, r6, r7, pc}

08002064 <I2C_WaitOnFlagUntilTimeout>:
{
 8002064:	b5f8      	push	{r3, r4, r5, r6, r7, lr}
 8002066:	0004      	movs	r4, r0
 8002068:	000d      	movs	r5, r1
 800206a:	0017      	movs	r7, r2
 800206c:	001e      	movs	r6, r3
  while (__HAL_I2C_GET_FLAG(hi2c, Flag) == Status)
 800206e:	6823      	ldr	r3, [r4, #0]
 8002070:	699b      	ldr	r3, [r3, #24]
 8002072:	402b      	ands	r3, r5
 8002074:	1b5b      	subs	r3, r3, r5
 8002076:	425a      	negs	r2, r3
 8002078:	4153      	adcs	r3, r2
 800207a:	42bb      	cmp	r3, r7
 800207c:	d001      	beq.n	8002082 <I2C_WaitOnFlagUntilTimeout+0x1e>
  return HAL_OK;
 800207e:	2000      	movs	r0, #0
 8002080:	e026      	b.n	80020d0 <I2C_WaitOnFlagUntilTimeout+0x6c>
    if (I2C_IsErrorOccurred(hi2c, Timeout, Tickstart) != HAL_OK)
 8002082:	0031      	movs	r1, r6
 8002084:	0020      	movs	r0, r4
 8002086:	9a06      	ldr	r2, [sp, #24]
 8002088:	f7ff ff40 	bl	8001f0c <I2C_IsErrorOccurred>
 800208c:	2800      	cmp	r0, #0
 800208e:	d11e      	bne.n	80020ce <I2C_WaitOnFlagUntilTimeout+0x6a>
    if (Timeout != HAL_MAX_DELAY)
 8002090:	1c73      	adds	r3, r6, #1
 8002092:	d0ec      	beq.n	800206e <I2C_WaitOnFlagUntilTimeout+0xa>
      if (((HAL_GetTick() - Tickstart) > Timeout) || (Timeout == 0U))
 8002094:	f7ff f90e 	bl	80012b4 <HAL_GetTick>
 8002098:	9b06      	ldr	r3, [sp, #24]
 800209a:	1ac0      	subs	r0, r0, r3
 800209c:	42b0      	cmp	r0, r6
 800209e:	d801      	bhi.n	80020a4 <I2C_WaitOnFlagUntilTimeout+0x40>
 80020a0:	2e00      	cmp	r6, #0
 80020a2:	d1e4      	bne.n	800206e <I2C_WaitOnFlagUntilTimeout+0xa>
        if (__HAL_I2C_GET_FLAG(hi2c, Flag) == Status)
 80020a4:	6823      	ldr	r3, [r4, #0]
 80020a6:	699b      	ldr	r3, [r3, #24]
 80020a8:	402b      	ands	r3, r5
 80020aa:	1b5b      	subs	r3, r3, r5
 80020ac:	425a      	negs	r2, r3
 80020ae:	4153      	adcs	r3, r2
 80020b0:	42bb      	cmp	r3, r7
 80020b2:	d1dc      	bne.n	800206e <I2C_WaitOnFlagUntilTimeout+0xa>
          hi2c->ErrorCode |= HAL_I2C_ERROR_TIMEOUT;
 80020b4:	2220      	movs	r2, #32
 80020b6:	6c63      	ldr	r3, [r4, #68]	@ 0x44
 80020b8:	4313      	orrs	r3, r2
 80020ba:	6463      	str	r3, [r4, #68]	@ 0x44
          hi2c->State = HAL_I2C_STATE_READY;
 80020bc:	0023      	movs	r3, r4
 80020be:	3341      	adds	r3, #65	@ 0x41
 80020c0:	701a      	strb	r2, [r3, #0]
          hi2c->Mode = HAL_I2C_MODE_NONE;
 80020c2:	0022      	movs	r2, r4
 80020c4:	2300      	movs	r3, #0
 80020c6:	3242      	adds	r2, #66	@ 0x42
          __HAL_UNLOCK(hi2c);
 80020c8:	3440      	adds	r4, #64	@ 0x40
          hi2c->Mode = HAL_I2C_MODE_NONE;
 80020ca:	7013      	strb	r3, [r2, #0]
          __HAL_UNLOCK(hi2c);
 80020cc:	7023      	strb	r3, [r4, #0]
      return HAL_ERROR;
 80020ce:	2001      	movs	r0, #1
}
 80020d0:	bdf8      	pop	{r3, r4, r5, r6, r7, pc}

080020d2 <I2C_WaitOnSTOPFlagUntilTimeout>:
{
 80020d2:	b5f8      	push	{r3, r4, r5, r6, r7, lr}
 80020d4:	0004      	movs	r4, r0
 80020d6:	000e      	movs	r6, r1
 80020d8:	0017      	movs	r7, r2
  while (__HAL_I2C_GET_FLAG(hi2c, I2C_FLAG_STOPF) == RESET)
 80020da:	2520      	movs	r5, #32
 80020dc:	6823      	ldr	r3, [r4, #0]
 80020de:	699b      	ldr	r3, [r3, #24]
 80020e0:	422b      	tst	r3, r5
 80020e2:	d001      	beq.n	80020e8 <I2C_WaitOnSTOPFlagUntilTimeout+0x16>
  return HAL_OK;
 80020e4:	2000      	movs	r0, #0
 80020e6:	e01d      	b.n	8002124 <I2C_WaitOnSTOPFlagUntilTimeout+0x52>
    if (I2C_IsErrorOccurred(hi2c, Timeout, Tickstart) != HAL_OK)
 80020e8:	003a      	movs	r2, r7
 80020ea:	0031      	movs	r1, r6
 80020ec:	0020      	movs	r0, r4
 80020ee:	f7ff ff0d 	bl	8001f0c <I2C_IsErrorOccurred>
 80020f2:	2800      	cmp	r0, #0
 80020f4:	d115      	bne.n	8002122 <I2C_WaitOnSTOPFlagUntilTimeout+0x50>
    if (((HAL_GetTick() - Tickstart) > Timeout) || (Timeout == 0U))
 80020f6:	f7ff f8dd 	bl	80012b4 <HAL_GetTick>
 80020fa:	1bc0      	subs	r0, r0, r7
 80020fc:	42b0      	cmp	r0, r6
 80020fe:	d801      	bhi.n	8002104 <I2C_WaitOnSTOPFlagUntilTimeout+0x32>
 8002100:	2e00      	cmp	r6, #0
 8002102:	d1eb      	bne.n	80020dc <I2C_WaitOnSTOPFlagUntilTimeout+0xa>
      if (__HAL_I2C_GET_FLAG(hi2c, I2C_FLAG_STOPF) == RESET)
 8002104:	6823      	ldr	r3, [r4, #0]
 8002106:	699b      	ldr	r3, [r3, #24]
 8002108:	001a      	movs	r2, r3
 800210a:	402a      	ands	r2, r5
 800210c:	422b      	tst	r3, r5
 800210e:	d1e5      	bne.n	80020dc <I2C_WaitOnSTOPFlagUntilTimeout+0xa>
        hi2c->ErrorCode |= HAL_I2C_ERROR_TIMEOUT;
 8002110:	6c63      	ldr	r3, [r4, #68]	@ 0x44
 8002112:	432b      	orrs	r3, r5
 8002114:	6463      	str	r3, [r4, #68]	@ 0x44
        hi2c->State = HAL_I2C_STATE_READY;
 8002116:	0023      	movs	r3, r4
        __HAL_UNLOCK(hi2c);
 8002118:	3440      	adds	r4, #64	@ 0x40
        hi2c->State = HAL_I2C_STATE_READY;
 800211a:	3341      	adds	r3, #65	@ 0x41
 800211c:	701d      	strb	r5, [r3, #0]
        hi2c->Mode = HAL_I2C_MODE_NONE;
 800211e:	705a      	strb	r2, [r3, #1]
        __HAL_UNLOCK(hi2c);
 8002120:	7022      	strb	r2, [r4, #0]
      return HAL_ERROR;
 8002122:	2001      	movs	r0, #1
}
 8002124:	bdf8      	pop	{r3, r4, r5, r6, r7, pc}
	...

08002128 <HAL_I2C_Init>:
{
 8002128:	b570      	push	{r4, r5, r6, lr}
 800212a:	0004      	movs	r4, r0
    return HAL_ERROR;
 800212c:	2001      	movs	r0, #1
  if (hi2c == NULL)
 800212e:	2c00      	cmp	r4, #0
 8002130:	d04e      	beq.n	80021d0 <HAL_I2C_Init+0xa8>
  if (hi2c->State == HAL_I2C_STATE_RESET)
 8002132:	0025      	movs	r5, r4
 8002134:	3541      	adds	r5, #65	@ 0x41
 8002136:	782b      	ldrb	r3, [r5, #0]
 8002138:	b2da      	uxtb	r2, r3
 800213a:	2b00      	cmp	r3, #0
 800213c:	d105      	bne.n	800214a <HAL_I2C_Init+0x22>
    hi2c->Lock = HAL_UNLOCKED;
 800213e:	0023      	movs	r3, r4
 8002140:	3340      	adds	r3, #64	@ 0x40
    HAL_I2C_MspInit(hi2c);
 8002142:	0020      	movs	r0, r4
    hi2c->Lock = HAL_UNLOCKED;
 8002144:	701a      	strb	r2, [r3, #0]
    HAL_I2C_MspInit(hi2c);
 8002146:	f7fe fd55 	bl	8000bf4 <HAL_I2C_MspInit>
  hi2c->State = HAL_I2C_STATE_BUSY;
 800214a:	2324      	movs	r3, #36	@ 0x24
  __HAL_I2C_DISABLE(hi2c);
 800214c:	2101      	movs	r1, #1
  hi2c->State = HAL_I2C_STATE_BUSY;
 800214e:	702b      	strb	r3, [r5, #0]
  __HAL_I2C_DISABLE(hi2c);
 8002150:	6823      	ldr	r3, [r4, #0]
  if (hi2c->Init.AddressingMode == I2C_ADDRESSINGMODE_7BIT)
 8002152:	68e0      	ldr	r0, [r4, #12]
  __HAL_I2C_DISABLE(hi2c);
 8002154:	681a      	ldr	r2, [r3, #0]
    hi2c->Instance->OAR1 = (I2C_OAR1_OA1EN | hi2c->Init.OwnAddress1);
 8002156:	68a6      	ldr	r6, [r4, #8]
  __HAL_I2C_DISABLE(hi2c);
 8002158:	438a      	bics	r2, r1
 800215a:	601a      	str	r2, [r3, #0]
  hi2c->Instance->TIMINGR = hi2c->Init.Timing & TIMING_CLEAR_MASK;
 800215c:	491d      	ldr	r1, [pc, #116]	@ (80021d4 <HAL_I2C_Init+0xac>)
 800215e:	6862      	ldr	r2, [r4, #4]
 8002160:	400a      	ands	r2, r1
 8002162:	611a      	str	r2, [r3, #16]
  hi2c->Instance->OAR1 &= ~I2C_OAR1_OA1EN;
 8002164:	689a      	ldr	r2, [r3, #8]
 8002166:	491c      	ldr	r1, [pc, #112]	@ (80021d8 <HAL_I2C_Init+0xb0>)
 8002168:	400a      	ands	r2, r1
 800216a:	609a      	str	r2, [r3, #8]
  if (hi2c->Init.AddressingMode == I2C_ADDRESSINGMODE_7BIT)
 800216c:	2801      	cmp	r0, #1
 800216e:	d107      	bne.n	8002180 <HAL_I2C_Init+0x58>
    hi2c->Instance->OAR1 = (I2C_OAR1_OA1EN | hi2c->Init.OwnAddress1);
 8002170:	2280      	movs	r2, #128	@ 0x80
 8002172:	0212      	lsls	r2, r2, #8
 8002174:	4332      	orrs	r2, r6
 8002176:	609a      	str	r2, [r3, #8]
    CLEAR_BIT(hi2c->Instance->CR2, I2C_CR2_ADD10);
 8002178:	685a      	ldr	r2, [r3, #4]
 800217a:	4818      	ldr	r0, [pc, #96]	@ (80021dc <HAL_I2C_Init+0xb4>)
 800217c:	4002      	ands	r2, r0
 800217e:	e009      	b.n	8002194 <HAL_I2C_Init+0x6c>
    hi2c->Instance->OAR1 = (I2C_OAR1_OA1EN | I2C_OAR1_OA1MODE | hi2c->Init.OwnAddress1);
 8002180:	2284      	movs	r2, #132	@ 0x84
 8002182:	0212      	lsls	r2, r2, #8
 8002184:	4332      	orrs	r2, r6
 8002186:	609a      	str	r2, [r3, #8]
  if (hi2c->Init.AddressingMode == I2C_ADDRESSINGMODE_10BIT)
 8002188:	2802      	cmp	r0, #2
 800218a:	d1f5      	bne.n	8002178 <HAL_I2C_Init+0x50>
    SET_BIT(hi2c->Instance->CR2, I2C_CR2_ADD10);
 800218c:	2280      	movs	r2, #128	@ 0x80
 800218e:	6858      	ldr	r0, [r3, #4]
 8002190:	0112      	lsls	r2, r2, #4
 8002192:	4302      	orrs	r2, r0
    CLEAR_BIT(hi2c->Instance->CR2, I2C_CR2_ADD10);
 8002194:	605a      	str	r2, [r3, #4]
  hi2c->Instance->CR2 |= (I2C_CR2_AUTOEND | I2C_CR2_NACK);
 8002196:	6858      	ldr	r0, [r3, #4]
 8002198:	4a11      	ldr	r2, [pc, #68]	@ (80021e0 <HAL_I2C_Init+0xb8>)
 800219a:	4302      	orrs	r2, r0
 800219c:	605a      	str	r2, [r3, #4]
  hi2c->Instance->OAR2 &= ~I2C_DUALADDRESS_ENABLE;
 800219e:	68da      	ldr	r2, [r3, #12]
  hi2c->ErrorCode = HAL_I2C_ERROR_NONE;
 80021a0:	2000      	movs	r0, #0
  hi2c->Instance->OAR2 &= ~I2C_DUALADDRESS_ENABLE;
 80021a2:	400a      	ands	r2, r1
 80021a4:	60da      	str	r2, [r3, #12]
  hi2c->Instance->OAR2 = (hi2c->Init.DualAddressMode | hi2c->Init.OwnAddress2 | \
 80021a6:	6961      	ldr	r1, [r4, #20]
 80021a8:	6922      	ldr	r2, [r4, #16]
 80021aa:	430a      	orrs	r2, r1
                          (hi2c->Init.OwnAddress2Masks << 8));
 80021ac:	69a1      	ldr	r1, [r4, #24]
 80021ae:	0209      	lsls	r1, r1, #8
  hi2c->Instance->OAR2 = (hi2c->Init.DualAddressMode | hi2c->Init.OwnAddress2 | \
 80021b0:	430a      	orrs	r2, r1
 80021b2:	60da      	str	r2, [r3, #12]
  hi2c->Instance->CR1 = (hi2c->Init.GeneralCallMode | hi2c->Init.NoStretchMode);
 80021b4:	6a21      	ldr	r1, [r4, #32]
 80021b6:	69e2      	ldr	r2, [r4, #28]
 80021b8:	430a      	orrs	r2, r1
 80021ba:	601a      	str	r2, [r3, #0]
  __HAL_I2C_ENABLE(hi2c);
 80021bc:	2201      	movs	r2, #1
 80021be:	6819      	ldr	r1, [r3, #0]
 80021c0:	430a      	orrs	r2, r1
 80021c2:	601a      	str	r2, [r3, #0]
  hi2c->State = HAL_I2C_STATE_READY;
 80021c4:	2320      	movs	r3, #32
  hi2c->ErrorCode = HAL_I2C_ERROR_NONE;
 80021c6:	6460      	str	r0, [r4, #68]	@ 0x44
  hi2c->State = HAL_I2C_STATE_READY;
 80021c8:	702b      	strb	r3, [r5, #0]
  hi2c->PreviousState = I2C_STATE_NONE;
 80021ca:	6320      	str	r0, [r4, #48]	@ 0x30
  hi2c->Mode = HAL_I2C_MODE_NONE;
 80021cc:	3442      	adds	r4, #66	@ 0x42
 80021ce:	7020      	strb	r0, [r4, #0]
}
 80021d0:	bd70      	pop	{r4, r5, r6, pc}
 80021d2:	46c0      	nop			@ (mov r8, r8)
 80021d4:	f0ffffff 	.word	0xf0ffffff
 80021d8:	ffff7fff 	.word	0xffff7fff
 80021dc:	fffff7ff 	.word	0xfffff7ff
 80021e0:	02008000 	.word	0x02008000

080021e4 <HAL_I2C_Mem_Write>:
{
 80021e4:	b5f0      	push	{r4, r5, r6, r7, lr}
  if (hi2c->State == HAL_I2C_STATE_READY)
 80021e6:	0007      	movs	r7, r0
{
 80021e8:	b087      	sub	sp, #28
 80021ea:	9303      	str	r3, [sp, #12]
 80021ec:	ab0c      	add	r3, sp, #48	@ 0x30
 80021ee:	9202      	str	r2, [sp, #8]
 80021f0:	cb04      	ldmia	r3!, {r2}
  if (hi2c->State == HAL_I2C_STATE_READY)
 80021f2:	3741      	adds	r7, #65	@ 0x41
{
 80021f4:	881b      	ldrh	r3, [r3, #0]
 80021f6:	9204      	str	r2, [sp, #16]
 80021f8:	9305      	str	r3, [sp, #20]
  if (hi2c->State == HAL_I2C_STATE_READY)
 80021fa:	783b      	ldrb	r3, [r7, #0]
{
 80021fc:	0004      	movs	r4, r0
 80021fe:	000e      	movs	r6, r1
    __HAL_LOCK(hi2c);
 8002200:	2002      	movs	r0, #2
  if (hi2c->State == HAL_I2C_STATE_READY)
 8002202:	2b20      	cmp	r3, #32
 8002204:	d108      	bne.n	8002218 <HAL_I2C_Mem_Write+0x34>
    if ((pData == NULL) || (Size == 0U))
 8002206:	2a00      	cmp	r2, #0
 8002208:	d002      	beq.n	8002210 <HAL_I2C_Mem_Write+0x2c>
 800220a:	9b05      	ldr	r3, [sp, #20]
 800220c:	2b00      	cmp	r3, #0
 800220e:	d105      	bne.n	800221c <HAL_I2C_Mem_Write+0x38>
      hi2c->ErrorCode = HAL_I2C_ERROR_INVALID_PARAM;
 8002210:	2380      	movs	r3, #128	@ 0x80
 8002212:	009b      	lsls	r3, r3, #2
 8002214:	6463      	str	r3, [r4, #68]	@ 0x44
      return  HAL_ERROR;
 8002216:	2001      	movs	r0, #1
}
 8002218:	b007      	add	sp, #28
 800221a:	bdf0      	pop	{r4, r5, r6, r7, pc}
    __HAL_LOCK(hi2c);
 800221c:	0023      	movs	r3, r4
 800221e:	3340      	adds	r3, #64	@ 0x40
 8002220:	781a      	ldrb	r2, [r3, #0]
 8002222:	2002      	movs	r0, #2
 8002224:	2a01      	cmp	r2, #1
 8002226:	d0f7      	beq.n	8002218 <HAL_I2C_Mem_Write+0x34>
 8002228:	2201      	movs	r2, #1
 800222a:	701a      	strb	r2, [r3, #0]
    tickstart = HAL_GetTick();
 800222c:	f7ff f842 	bl	80012b4 <HAL_GetTick>
    if (I2C_WaitOnFlagUntilTimeout(hi2c, I2C_FLAG_BUSY, SET, I2C_TIMEOUT_BUSY, tickstart) != HAL_OK)
 8002230:	2180      	movs	r1, #128	@ 0x80
    tickstart = HAL_GetTick();
 8002232:	0005      	movs	r5, r0
    if (I2C_WaitOnFlagUntilTimeout(hi2c, I2C_FLAG_BUSY, SET, I2C_TIMEOUT_BUSY, tickstart) != HAL_OK)
 8002234:	9000      	str	r0, [sp, #0]
 8002236:	2319      	movs	r3, #25
 8002238:	2201      	movs	r2, #1
 800223a:	0020      	movs	r0, r4
 800223c:	0209      	lsls	r1, r1, #8
 800223e:	f7ff ff11 	bl	8002064 <I2C_WaitOnFlagUntilTimeout>
 8002242:	2800      	cmp	r0, #0
 8002244:	d1e7      	bne.n	8002216 <HAL_I2C_Mem_Write+0x32>
    hi2c->State     = HAL_I2C_STATE_BUSY_TX;
 8002246:	2321      	movs	r3, #33	@ 0x21
 8002248:	703b      	strb	r3, [r7, #0]
    hi2c->Mode      = HAL_I2C_MODE_MEM;
 800224a:	0027      	movs	r7, r4
 800224c:	331f      	adds	r3, #31
 800224e:	3742      	adds	r7, #66	@ 0x42
 8002250:	703b      	strb	r3, [r7, #0]
    hi2c->pBuffPtr  = pData;
 8002252:	9b04      	ldr	r3, [sp, #16]
    hi2c->ErrorCode = HAL_I2C_ERROR_NONE;
 8002254:	6460      	str	r0, [r4, #68]	@ 0x44
    hi2c->pBuffPtr  = pData;
 8002256:	6263      	str	r3, [r4, #36]	@ 0x24
    hi2c->XferCount = Size;
 8002258:	9b05      	ldr	r3, [sp, #20]
    hi2c->XferISR   = NULL;
 800225a:	6360      	str	r0, [r4, #52]	@ 0x34
    hi2c->XferCount = Size;
 800225c:	8563      	strh	r3, [r4, #42]	@ 0x2a
  I2C_TransferConfig(hi2c, DevAddress, (uint8_t)MemAddSize, I2C_RELOAD_MODE, I2C_GENERATE_START_WRITE);
 800225e:	466b      	mov	r3, sp
 8002260:	7b1a      	ldrb	r2, [r3, #12]
 8002262:	4b4b      	ldr	r3, [pc, #300]	@ (8002390 <HAL_I2C_Mem_Write+0x1ac>)
 8002264:	0031      	movs	r1, r6
 8002266:	9300      	str	r3, [sp, #0]
 8002268:	2380      	movs	r3, #128	@ 0x80
 800226a:	0020      	movs	r0, r4
 800226c:	045b      	lsls	r3, r3, #17
 800226e:	f7ff fe37 	bl	8001ee0 <I2C_TransferConfig>
  if (I2C_WaitOnTXISFlagUntilTimeout(hi2c, Timeout, Tickstart) != HAL_OK)
 8002272:	002a      	movs	r2, r5
 8002274:	0020      	movs	r0, r4
 8002276:	990e      	ldr	r1, [sp, #56]	@ 0x38
 8002278:	f7ff fec6 	bl	8002008 <I2C_WaitOnTXISFlagUntilTimeout>
 800227c:	2800      	cmp	r0, #0
 800227e:	d129      	bne.n	80022d4 <HAL_I2C_Mem_Write+0xf0>
  if (MemAddSize == I2C_MEMADD_SIZE_8BIT)
 8002280:	9a03      	ldr	r2, [sp, #12]
    hi2c->Instance->TXDR = I2C_MEM_ADD_LSB(MemAddress);
 8002282:	6823      	ldr	r3, [r4, #0]
  if (MemAddSize == I2C_MEMADD_SIZE_8BIT)
 8002284:	2a01      	cmp	r2, #1
 8002286:	d116      	bne.n	80022b6 <HAL_I2C_Mem_Write+0xd2>
    hi2c->Instance->TXDR = I2C_MEM_ADD_LSB(MemAddress);
 8002288:	466a      	mov	r2, sp
 800228a:	7a12      	ldrb	r2, [r2, #8]
 800228c:	629a      	str	r2, [r3, #40]	@ 0x28
  if (I2C_WaitOnFlagUntilTimeout(hi2c, I2C_FLAG_TCR, RESET, Timeout, Tickstart) != HAL_OK)
 800228e:	2200      	movs	r2, #0
 8002290:	2180      	movs	r1, #128	@ 0x80
 8002292:	0020      	movs	r0, r4
 8002294:	9b0e      	ldr	r3, [sp, #56]	@ 0x38
 8002296:	9500      	str	r5, [sp, #0]
 8002298:	f7ff fee4 	bl	8002064 <I2C_WaitOnFlagUntilTimeout>
 800229c:	2800      	cmp	r0, #0
 800229e:	d119      	bne.n	80022d4 <HAL_I2C_Mem_Write+0xf0>
    if (hi2c->XferCount > MAX_NBYTE_SIZE)
 80022a0:	8d63      	ldrh	r3, [r4, #42]	@ 0x2a
 80022a2:	2bff      	cmp	r3, #255	@ 0xff
 80022a4:	d81a      	bhi.n	80022dc <HAL_I2C_Mem_Write+0xf8>
      I2C_TransferConfig(hi2c, DevAddress, (uint8_t)hi2c->XferSize, I2C_AUTOEND_MODE, I2C_NO_STARTSTOP);
 80022a6:	2380      	movs	r3, #128	@ 0x80
      hi2c->XferSize = hi2c->XferCount;
 80022a8:	8d62      	ldrh	r2, [r4, #42]	@ 0x2a
      I2C_TransferConfig(hi2c, DevAddress, (uint8_t)hi2c->XferSize, I2C_AUTOEND_MODE, I2C_NO_STARTSTOP);
 80022aa:	049b      	lsls	r3, r3, #18
      hi2c->XferSize = hi2c->XferCount;
 80022ac:	b292      	uxth	r2, r2
 80022ae:	8522      	strh	r2, [r4, #40]	@ 0x28
      I2C_TransferConfig(hi2c, DevAddress, (uint8_t)hi2c->XferSize, I2C_AUTOEND_MODE, I2C_NO_STARTSTOP);
 80022b0:	b2d2      	uxtb	r2, r2
 80022b2:	9000      	str	r0, [sp, #0]
 80022b4:	e017      	b.n	80022e6 <HAL_I2C_Mem_Write+0x102>
    hi2c->Instance->TXDR = I2C_MEM_ADD_MSB(MemAddress);
 80022b6:	9a02      	ldr	r2, [sp, #8]
    if (I2C_WaitOnTXISFlagUntilTimeout(hi2c, Timeout, Tickstart) != HAL_OK)
 80022b8:	0020      	movs	r0, r4
    hi2c->Instance->TXDR = I2C_MEM_ADD_MSB(MemAddress);
 80022ba:	0a12      	lsrs	r2, r2, #8
 80022bc:	629a      	str	r2, [r3, #40]	@ 0x28
    if (I2C_WaitOnTXISFlagUntilTimeout(hi2c, Timeout, Tickstart) != HAL_OK)
 80022be:	990e      	ldr	r1, [sp, #56]	@ 0x38
 80022c0:	002a      	movs	r2, r5
 80022c2:	f7ff fea1 	bl	8002008 <I2C_WaitOnTXISFlagUntilTimeout>
 80022c6:	2800      	cmp	r0, #0
 80022c8:	d104      	bne.n	80022d4 <HAL_I2C_Mem_Write+0xf0>
    hi2c->Instance->TXDR = I2C_MEM_ADD_LSB(MemAddress);
 80022ca:	466b      	mov	r3, sp
 80022cc:	6822      	ldr	r2, [r4, #0]
 80022ce:	7a1b      	ldrb	r3, [r3, #8]
 80022d0:	6293      	str	r3, [r2, #40]	@ 0x28
 80022d2:	e7dc      	b.n	800228e <HAL_I2C_Mem_Write+0xaa>
      __HAL_UNLOCK(hi2c);
 80022d4:	2300      	movs	r3, #0
 80022d6:	3440      	adds	r4, #64	@ 0x40
 80022d8:	7023      	strb	r3, [r4, #0]
      return HAL_ERROR;
 80022da:	e79c      	b.n	8002216 <HAL_I2C_Mem_Write+0x32>
      hi2c->XferSize = MAX_NBYTE_SIZE;
 80022dc:	22ff      	movs	r2, #255	@ 0xff
      I2C_TransferConfig(hi2c, DevAddress, (uint8_t)hi2c->XferSize, I2C_RELOAD_MODE, I2C_NO_STARTSTOP);
 80022de:	2380      	movs	r3, #128	@ 0x80
      hi2c->XferSize = MAX_NBYTE_SIZE;
 80022e0:	8522      	strh	r2, [r4, #40]	@ 0x28
      I2C_TransferConfig(hi2c, DevAddress, (uint8_t)hi2c->XferSize, I2C_RELOAD_MODE, I2C_NO_STARTSTOP);
 80022e2:	045b      	lsls	r3, r3, #17
 80022e4:	9000      	str	r0, [sp, #0]
      I2C_TransferConfig(hi2c, DevAddress, (uint8_t)hi2c->XferSize, I2C_AUTOEND_MODE, I2C_NO_STARTSTOP);
 80022e6:	0031      	movs	r1, r6
 80022e8:	0020      	movs	r0, r4
 80022ea:	f7ff fdf9 	bl	8001ee0 <I2C_TransferConfig>
      if (I2C_WaitOnTXISFlagUntilTimeout(hi2c, Timeout, tickstart) != HAL_OK)
 80022ee:	002a      	movs	r2, r5
 80022f0:	0020      	movs	r0, r4
 80022f2:	990e      	ldr	r1, [sp, #56]	@ 0x38
 80022f4:	f7ff fe88 	bl	8002008 <I2C_WaitOnTXISFlagUntilTimeout>
 80022f8:	2800      	cmp	r0, #0
 80022fa:	d000      	beq.n	80022fe <HAL_I2C_Mem_Write+0x11a>
 80022fc:	e78b      	b.n	8002216 <HAL_I2C_Mem_Write+0x32>
      hi2c->Instance->TXDR = *hi2c->pBuffPtr;
 80022fe:	6a63      	ldr	r3, [r4, #36]	@ 0x24
 8002300:	6822      	ldr	r2, [r4, #0]
 8002302:	7819      	ldrb	r1, [r3, #0]
      hi2c->pBuffPtr++;
 8002304:	3301      	adds	r3, #1
      hi2c->Instance->TXDR = *hi2c->pBuffPtr;
 8002306:	6291      	str	r1, [r2, #40]	@ 0x28
      hi2c->pBuffPtr++;
 8002308:	6263      	str	r3, [r4, #36]	@ 0x24
      hi2c->XferCount--;
 800230a:	8d63      	ldrh	r3, [r4, #42]	@ 0x2a
      hi2c->XferSize--;
 800230c:	8d22      	ldrh	r2, [r4, #40]	@ 0x28
      hi2c->XferCount--;
 800230e:	3b01      	subs	r3, #1
 8002310:	b29b      	uxth	r3, r3
 8002312:	8563      	strh	r3, [r4, #42]	@ 0x2a
      hi2c->XferSize--;
 8002314:	3a01      	subs	r2, #1
      if ((hi2c->XferCount != 0U) && (hi2c->XferSize == 0U))
 8002316:	8d63      	ldrh	r3, [r4, #42]	@ 0x2a
      hi2c->XferSize--;
 8002318:	b292      	uxth	r2, r2
 800231a:	8522      	strh	r2, [r4, #40]	@ 0x28
      if ((hi2c->XferCount != 0U) && (hi2c->XferSize == 0U))
 800231c:	2b00      	cmp	r3, #0
 800231e:	d016      	beq.n	800234e <HAL_I2C_Mem_Write+0x16a>
 8002320:	2a00      	cmp	r2, #0
 8002322:	d114      	bne.n	800234e <HAL_I2C_Mem_Write+0x16a>
        if (I2C_WaitOnFlagUntilTimeout(hi2c, I2C_FLAG_TCR, RESET, Timeout, tickstart) != HAL_OK)
 8002324:	2180      	movs	r1, #128	@ 0x80
 8002326:	0020      	movs	r0, r4
 8002328:	9b0e      	ldr	r3, [sp, #56]	@ 0x38
 800232a:	9500      	str	r5, [sp, #0]
 800232c:	f7ff fe9a 	bl	8002064 <I2C_WaitOnFlagUntilTimeout>
 8002330:	2800      	cmp	r0, #0
 8002332:	d000      	beq.n	8002336 <HAL_I2C_Mem_Write+0x152>
 8002334:	e76f      	b.n	8002216 <HAL_I2C_Mem_Write+0x32>
        if (hi2c->XferCount > MAX_NBYTE_SIZE)
 8002336:	8d63      	ldrh	r3, [r4, #42]	@ 0x2a
 8002338:	2bff      	cmp	r3, #255	@ 0xff
 800233a:	d921      	bls.n	8002380 <HAL_I2C_Mem_Write+0x19c>
          hi2c->XferSize = MAX_NBYTE_SIZE;
 800233c:	22ff      	movs	r2, #255	@ 0xff
          I2C_TransferConfig(hi2c, DevAddress, (uint8_t)hi2c->XferSize, I2C_RELOAD_MODE,
 800233e:	2380      	movs	r3, #128	@ 0x80
          hi2c->XferSize = MAX_NBYTE_SIZE;
 8002340:	8522      	strh	r2, [r4, #40]	@ 0x28
          I2C_TransferConfig(hi2c, DevAddress, (uint8_t)hi2c->XferSize, I2C_RELOAD_MODE,
 8002342:	045b      	lsls	r3, r3, #17
 8002344:	9000      	str	r0, [sp, #0]
          I2C_TransferConfig(hi2c, DevAddress, (uint8_t)hi2c->XferSize, I2C_AUTOEND_MODE,
 8002346:	0031      	movs	r1, r6
 8002348:	0020      	movs	r0, r4
 800234a:	f7ff fdc9 	bl	8001ee0 <I2C_TransferConfig>
    } while (hi2c->XferCount > 0U);
 800234e:	8d63      	ldrh	r3, [r4, #42]	@ 0x2a
 8002350:	2b00      	cmp	r3, #0
 8002352:	d1cc      	bne.n	80022ee <HAL_I2C_Mem_Write+0x10a>
    if (I2C_WaitOnSTOPFlagUntilTimeout(hi2c, Timeout, tickstart) != HAL_OK)
 8002354:	002a      	movs	r2, r5
 8002356:	0020      	movs	r0, r4
 8002358:	990e      	ldr	r1, [sp, #56]	@ 0x38
 800235a:	f7ff feba 	bl	80020d2 <I2C_WaitOnSTOPFlagUntilTimeout>
 800235e:	2800      	cmp	r0, #0
 8002360:	d000      	beq.n	8002364 <HAL_I2C_Mem_Write+0x180>
 8002362:	e758      	b.n	8002216 <HAL_I2C_Mem_Write+0x32>
    __HAL_I2C_CLEAR_FLAG(hi2c, I2C_FLAG_STOPF);
 8002364:	2120      	movs	r1, #32
 8002366:	6823      	ldr	r3, [r4, #0]
    I2C_RESET_CR2(hi2c);
 8002368:	4d0a      	ldr	r5, [pc, #40]	@ (8002394 <HAL_I2C_Mem_Write+0x1b0>)
    __HAL_I2C_CLEAR_FLAG(hi2c, I2C_FLAG_STOPF);
 800236a:	61d9      	str	r1, [r3, #28]
    I2C_RESET_CR2(hi2c);
 800236c:	685a      	ldr	r2, [r3, #4]
 800236e:	402a      	ands	r2, r5
 8002370:	605a      	str	r2, [r3, #4]
    hi2c->State = HAL_I2C_STATE_READY;
 8002372:	0023      	movs	r3, r4
    __HAL_UNLOCK(hi2c);
 8002374:	3440      	adds	r4, #64	@ 0x40
    hi2c->State = HAL_I2C_STATE_READY;
 8002376:	3341      	adds	r3, #65	@ 0x41
 8002378:	7019      	strb	r1, [r3, #0]
    hi2c->Mode  = HAL_I2C_MODE_NONE;
 800237a:	7038      	strb	r0, [r7, #0]
    __HAL_UNLOCK(hi2c);
 800237c:	7020      	strb	r0, [r4, #0]
    return HAL_OK;
 800237e:	e74b      	b.n	8002218 <HAL_I2C_Mem_Write+0x34>
          I2C_TransferConfig(hi2c, DevAddress, (uint8_t)hi2c->XferSize, I2C_AUTOEND_MODE,
 8002380:	2380      	movs	r3, #128	@ 0x80
          hi2c->XferSize = hi2c->XferCount;
 8002382:	8d62      	ldrh	r2, [r4, #42]	@ 0x2a
          I2C_TransferConfig(hi2c, DevAddress, (uint8_t)hi2c->XferSize, I2C_AUTOEND_MODE,
 8002384:	049b      	lsls	r3, r3, #18
          hi2c->XferSize = hi2c->XferCount;
 8002386:	b292      	uxth	r2, r2
 8002388:	8522      	strh	r2, [r4, #40]	@ 0x28
          I2C_TransferConfig(hi2c, DevAddress, (uint8_t)hi2c->XferSize, I2C_AUTOEND_MODE,
 800238a:	b2d2      	uxtb	r2, r2
 800238c:	9000      	str	r0, [sp, #0]
 800238e:	e7da      	b.n	8002346 <HAL_I2C_Mem_Write+0x162>
 8002390:	80002000 	.word	0x80002000
 8002394:	fe00e800 	.word	0xfe00e800

08002398 <HAL_I2CEx_ConfigAnalogFilter>:
  *                the configuration information for the specified I2Cx peripheral.
  * @param  AnalogFilter New state of the Analog filter.
  * @retval HAL status
  */
HAL_StatusTypeDef HAL_I2CEx_ConfigAnalogFilter(I2C_HandleTypeDef *hi2c, uint32_t AnalogFilter)
{
 8002398:	b5f0      	push	{r4, r5, r6, r7, lr}
  /* Check the parameters */
  assert_param(IS_I2C_ALL_INSTANCE(hi2c->Instance));
  assert_param(IS_I2C_ANALOG_FILTER(AnalogFilter));

  if (hi2c->State == HAL_I2C_STATE_READY)
 800239a:	0004      	movs	r4, r0
 800239c:	3441      	adds	r4, #65	@ 0x41
 800239e:	7822      	ldrb	r2, [r4, #0]
{
 80023a0:	0003      	movs	r3, r0
 80023a2:	000f      	movs	r7, r1
  {
    /* Process Locked */
    __HAL_LOCK(hi2c);
 80023a4:	2002      	movs	r0, #2
  if (hi2c->State == HAL_I2C_STATE_READY)
 80023a6:	b2d6      	uxtb	r6, r2
 80023a8:	2a20      	cmp	r2, #32
 80023aa:	d118      	bne.n	80023de <HAL_I2CEx_ConfigAnalogFilter+0x46>
    __HAL_LOCK(hi2c);
 80023ac:	001d      	movs	r5, r3
 80023ae:	3540      	adds	r5, #64	@ 0x40
 80023b0:	782a      	ldrb	r2, [r5, #0]
 80023b2:	2a01      	cmp	r2, #1
 80023b4:	d013      	beq.n	80023de <HAL_I2CEx_ConfigAnalogFilter+0x46>

    hi2c->State = HAL_I2C_STATE_BUSY;
 80023b6:	2224      	movs	r2, #36	@ 0x24
 80023b8:	7022      	strb	r2, [r4, #0]

    /* Disable the selected I2C peripheral */
    __HAL_I2C_DISABLE(hi2c);
 80023ba:	681b      	ldr	r3, [r3, #0]
 80023bc:	3a23      	subs	r2, #35	@ 0x23
 80023be:	6819      	ldr	r1, [r3, #0]

    /* Reset I2Cx ANOFF bit */
    hi2c->Instance->CR1 &= ~(I2C_CR1_ANFOFF);
 80023c0:	4807      	ldr	r0, [pc, #28]	@ (80023e0 <HAL_I2CEx_ConfigAnalogFilter+0x48>)
    __HAL_I2C_DISABLE(hi2c);
 80023c2:	4391      	bics	r1, r2
 80023c4:	6019      	str	r1, [r3, #0]
    hi2c->Instance->CR1 &= ~(I2C_CR1_ANFOFF);
 80023c6:	6819      	ldr	r1, [r3, #0]
 80023c8:	4001      	ands	r1, r0
    __HAL_I2C_ENABLE(hi2c);

    hi2c->State = HAL_I2C_STATE_READY;

    /* Process Unlocked */
    __HAL_UNLOCK(hi2c);
 80023ca:	2000      	movs	r0, #0
    hi2c->Instance->CR1 &= ~(I2C_CR1_ANFOFF);
 80023cc:	6019      	str	r1, [r3, #0]
    hi2c->Instance->CR1 |= AnalogFilter;
 80023ce:	6819      	ldr	r1, [r3, #0]
 80023d0:	4339      	orrs	r1, r7
 80023d2:	6019      	str	r1, [r3, #0]
    __HAL_I2C_ENABLE(hi2c);
 80023d4:	6819      	ldr	r1, [r3, #0]
 80023d6:	430a      	orrs	r2, r1
 80023d8:	601a      	str	r2, [r3, #0]
    hi2c->State = HAL_I2C_STATE_READY;
 80023da:	7026      	strb	r6, [r4, #0]
    __HAL_UNLOCK(hi2c);
 80023dc:	7028      	strb	r0, [r5, #0]
  }
  else
  {
    return HAL_BUSY;
  }
}
 80023de:	bdf0      	pop	{r4, r5, r6, r7, pc}
 80023e0:	ffffefff 	.word	0xffffefff

080023e4 <HAL_I2CEx_ConfigDigitalFilter>:

  /* Check the parameters */
  assert_param(IS_I2C_ALL_INSTANCE(hi2c->Instance));
  assert_param(IS_I2C_DIGITAL_FILTER(DigitalFilter));

  if (hi2c->State == HAL_I2C_STATE_READY)
 80023e4:	0002      	movs	r2, r0
{
 80023e6:	b5f0      	push	{r4, r5, r6, r7, lr}
  if (hi2c->State == HAL_I2C_STATE_READY)
 80023e8:	3241      	adds	r2, #65	@ 0x41
 80023ea:	7814      	ldrb	r4, [r2, #0]
{
 80023ec:	0003      	movs	r3, r0
  if (hi2c->State == HAL_I2C_STATE_READY)
 80023ee:	b2e5      	uxtb	r5, r4
  {
    /* Process Locked */
    __HAL_LOCK(hi2c);
 80023f0:	2002      	movs	r0, #2
  if (hi2c->State == HAL_I2C_STATE_READY)
 80023f2:	2c20      	cmp	r4, #32
 80023f4:	d117      	bne.n	8002426 <HAL_I2CEx_ConfigDigitalFilter+0x42>
    __HAL_LOCK(hi2c);
 80023f6:	001c      	movs	r4, r3
 80023f8:	3440      	adds	r4, #64	@ 0x40
 80023fa:	7826      	ldrb	r6, [r4, #0]
 80023fc:	2e01      	cmp	r6, #1
 80023fe:	d012      	beq.n	8002426 <HAL_I2CEx_ConfigDigitalFilter+0x42>

    hi2c->State = HAL_I2C_STATE_BUSY;
 8002400:	3022      	adds	r0, #34	@ 0x22
 8002402:	7010      	strb	r0, [r2, #0]

    /* Disable the selected I2C peripheral */
    __HAL_I2C_DISABLE(hi2c);
 8002404:	681b      	ldr	r3, [r3, #0]
 8002406:	3823      	subs	r0, #35	@ 0x23
 8002408:	681e      	ldr	r6, [r3, #0]

    /* Get the old register value */
    tmpreg = hi2c->Instance->CR1;

    /* Reset I2Cx DNF bits [11:8] */
    tmpreg &= ~(I2C_CR1_DNF);
 800240a:	4f07      	ldr	r7, [pc, #28]	@ (8002428 <HAL_I2CEx_ConfigDigitalFilter+0x44>)
    __HAL_I2C_DISABLE(hi2c);
 800240c:	4386      	bics	r6, r0
 800240e:	601e      	str	r6, [r3, #0]
    tmpreg = hi2c->Instance->CR1;
 8002410:	681e      	ldr	r6, [r3, #0]

    /* Set I2Cx DNF coefficient */
    tmpreg |= DigitalFilter << 8U;
 8002412:	0209      	lsls	r1, r1, #8
    tmpreg &= ~(I2C_CR1_DNF);
 8002414:	403e      	ands	r6, r7
    tmpreg |= DigitalFilter << 8U;
 8002416:	4331      	orrs	r1, r6

    /* Store the new register value */
    hi2c->Instance->CR1 = tmpreg;
 8002418:	6019      	str	r1, [r3, #0]

    __HAL_I2C_ENABLE(hi2c);
 800241a:	6819      	ldr	r1, [r3, #0]
 800241c:	4308      	orrs	r0, r1
 800241e:	6018      	str	r0, [r3, #0]

    hi2c->State = HAL_I2C_STATE_READY;

    /* Process Unlocked */
    __HAL_UNLOCK(hi2c);
 8002420:	2000      	movs	r0, #0
    hi2c->State = HAL_I2C_STATE_READY;
 8002422:	7015      	strb	r5, [r2, #0]
    __HAL_UNLOCK(hi2c);
 8002424:	7020      	strb	r0, [r4, #0]
  }
  else
  {
    return HAL_BUSY;
  }
}
 8002426:	bdf0      	pop	{r4, r5, r6, r7, pc}
 8002428:	fffff0ff 	.word	0xfffff0ff

0800242c <HAL_PWR_EnterSTOPMode>:
{
  /* Check the parameters */
  assert_param(IS_PWR_REGULATOR(Regulator));
  assert_param(IS_PWR_STOP_ENTRY(STOPEntry));

  MODIFY_REG(PWR->CR1, PWR_CR1_LPMS, PWR_LOWPOWERMODE_STOP0);
 800242c:	2007      	movs	r0, #7
 800242e:	4a0a      	ldr	r2, [pc, #40]	@ (8002458 <HAL_PWR_EnterSTOPMode+0x2c>)
 8002430:	6813      	ldr	r3, [r2, #0]
 8002432:	4383      	bics	r3, r0
 8002434:	6013      	str	r3, [r2, #0]

  /* Set SLEEPDEEP bit of Cortex System Control Register */
  SET_BIT(SCB->SCR, ((uint32_t)SCB_SCR_SLEEPDEEP_Msk));
 8002436:	2204      	movs	r2, #4
 8002438:	4b08      	ldr	r3, [pc, #32]	@ (800245c <HAL_PWR_EnterSTOPMode+0x30>)
 800243a:	6918      	ldr	r0, [r3, #16]
 800243c:	4302      	orrs	r2, r0
 800243e:	611a      	str	r2, [r3, #16]

  /* Select Stop mode entry --------------------------------------------------*/
  if (STOPEntry == PWR_STOPENTRY_WFI)
 8002440:	2901      	cmp	r1, #1
 8002442:	d105      	bne.n	8002450 <HAL_PWR_EnterSTOPMode+0x24>
  {
    /* Request Wait For Interrupt */
    __WFI();
 8002444:	bf30      	wfi
    __WFE();
    __WFE();
  }

  /* Reset SLEEPDEEP bit of Cortex System Control Register */
  CLEAR_BIT(SCB->SCR, ((uint32_t)SCB_SCR_SLEEPDEEP_Msk));
 8002446:	2104      	movs	r1, #4
 8002448:	691a      	ldr	r2, [r3, #16]
 800244a:	438a      	bics	r2, r1
 800244c:	611a      	str	r2, [r3, #16]
}
 800244e:	4770      	bx	lr
    __SEV();
 8002450:	bf40      	sev
    __WFE();
 8002452:	bf20      	wfe
    __WFE();
 8002454:	bf20      	wfe
 8002456:	e7f6      	b.n	8002446 <HAL_PWR_EnterSTOPMode+0x1a>
 8002458:	40007000 	.word	0x40007000
 800245c:	e000ed00 	.word	0xe000ed00

08002460 <HAL_RCC_OscConfig>:
            must adjust the number of CPU wait states in their application (SystemClock_Config() API)
            before calling the HAL_RCC_OscConfig() API to update the HSI48 clock division factor.
  * @retval HAL status
  */
HAL_StatusTypeDef HAL_RCC_OscConfig(const RCC_OscInitTypeDef  *RCC_OscInitStruct)
{
 8002460:	b5f8      	push	{r3, r4, r5, r6, r7, lr}
 8002462:	1e05      	subs	r5, r0, #0
  uint32_t tickstart;
  uint32_t temp_sysclksrc;

  /* Check Null pointer */
  if (RCC_OscInitStruct == NULL)
 8002464:	d101      	bne.n	800246a <HAL_RCC_OscConfig+0xa>
  {
    return HAL_ERROR;
 8002466:	2001      	movs	r0, #1
      }
    }
  }
#endif /* RCC_CR_HSIUSB48ON */
  return HAL_OK;
}
 8002468:	bdf8      	pop	{r3, r4, r5, r6, r7, pc}
  if (((RCC_OscInitStruct->OscillatorType) & RCC_OSCILLATORTYPE_HSE) == RCC_OSCILLATORTYPE_HSE)
 800246a:	6803      	ldr	r3, [r0, #0]
 800246c:	07db      	lsls	r3, r3, #31
 800246e:	d40d      	bmi.n	800248c <HAL_RCC_OscConfig+0x2c>
  if (((RCC_OscInitStruct->OscillatorType) & RCC_OSCILLATORTYPE_HSI) == RCC_OSCILLATORTYPE_HSI)
 8002470:	682b      	ldr	r3, [r5, #0]
 8002472:	079b      	lsls	r3, r3, #30
 8002474:	d44f      	bmi.n	8002516 <HAL_RCC_OscConfig+0xb6>
  if (((RCC_OscInitStruct->OscillatorType) & RCC_OSCILLATORTYPE_LSI) == RCC_OSCILLATORTYPE_LSI)
 8002476:	682b      	ldr	r3, [r5, #0]
 8002478:	071b      	lsls	r3, r3, #28
 800247a:	d500      	bpl.n	800247e <HAL_RCC_OscConfig+0x1e>
 800247c:	e0a4      	b.n	80025c8 <HAL_RCC_OscConfig+0x168>
  if (((RCC_OscInitStruct->OscillatorType) & RCC_OSCILLATORTYPE_LSE) == RCC_OSCILLATORTYPE_LSE)
 800247e:	2204      	movs	r2, #4
 8002480:	682b      	ldr	r3, [r5, #0]
 8002482:	4213      	tst	r3, r2
 8002484:	d000      	beq.n	8002488 <HAL_RCC_OscConfig+0x28>
 8002486:	e0cf      	b.n	8002628 <HAL_RCC_OscConfig+0x1c8>
  return HAL_OK;
 8002488:	2000      	movs	r0, #0
 800248a:	e7ed      	b.n	8002468 <HAL_RCC_OscConfig+0x8>
    temp_sysclksrc = __HAL_RCC_GET_SYSCLK_SOURCE();
 800248c:	2138      	movs	r1, #56	@ 0x38
 800248e:	4c85      	ldr	r4, [pc, #532]	@ (80026a4 <HAL_RCC_OscConfig+0x244>)
      if (RCC_OscInitStruct->HSEState == RCC_HSE_OFF)
 8002490:	6843      	ldr	r3, [r0, #4]
    temp_sysclksrc = __HAL_RCC_GET_SYSCLK_SOURCE();
 8002492:	68a2      	ldr	r2, [r4, #8]
 8002494:	400a      	ands	r2, r1
    if (temp_sysclksrc == RCC_CFGR_SWS_HSE)
 8002496:	2a08      	cmp	r2, #8
 8002498:	d102      	bne.n	80024a0 <HAL_RCC_OscConfig+0x40>
      if (RCC_OscInitStruct->HSEState == RCC_HSE_OFF)
 800249a:	2b00      	cmp	r3, #0
 800249c:	d1e8      	bne.n	8002470 <HAL_RCC_OscConfig+0x10>
 800249e:	e7e2      	b.n	8002466 <HAL_RCC_OscConfig+0x6>
      __HAL_RCC_HSE_CONFIG(RCC_OscInitStruct->HSEState);
 80024a0:	2280      	movs	r2, #128	@ 0x80
 80024a2:	0252      	lsls	r2, r2, #9
 80024a4:	4293      	cmp	r3, r2
 80024a6:	d111      	bne.n	80024cc <HAL_RCC_OscConfig+0x6c>
 80024a8:	6822      	ldr	r2, [r4, #0]
 80024aa:	4313      	orrs	r3, r2
 80024ac:	6023      	str	r3, [r4, #0]
        tickstart = HAL_GetTick();
 80024ae:	f7fe ff01 	bl	80012b4 <HAL_GetTick>
        while (READ_BIT(RCC->CR, RCC_CR_HSERDY) == 0U)
 80024b2:	2780      	movs	r7, #128	@ 0x80
        tickstart = HAL_GetTick();
 80024b4:	0006      	movs	r6, r0
        while (READ_BIT(RCC->CR, RCC_CR_HSERDY) == 0U)
 80024b6:	02bf      	lsls	r7, r7, #10
 80024b8:	6823      	ldr	r3, [r4, #0]
 80024ba:	423b      	tst	r3, r7
 80024bc:	d1d8      	bne.n	8002470 <HAL_RCC_OscConfig+0x10>
          if ((HAL_GetTick() - tickstart) > RCC_HSE_TIMEOUT_VALUE)
 80024be:	f7fe fef9 	bl	80012b4 <HAL_GetTick>
 80024c2:	1b80      	subs	r0, r0, r6
 80024c4:	2864      	cmp	r0, #100	@ 0x64
 80024c6:	d9f7      	bls.n	80024b8 <HAL_RCC_OscConfig+0x58>
            return HAL_TIMEOUT;
 80024c8:	2003      	movs	r0, #3
 80024ca:	e7cd      	b.n	8002468 <HAL_RCC_OscConfig+0x8>
      __HAL_RCC_HSE_CONFIG(RCC_OscInitStruct->HSEState);
 80024cc:	21a0      	movs	r1, #160	@ 0xa0
 80024ce:	02c9      	lsls	r1, r1, #11
 80024d0:	428b      	cmp	r3, r1
 80024d2:	d108      	bne.n	80024e6 <HAL_RCC_OscConfig+0x86>
 80024d4:	2380      	movs	r3, #128	@ 0x80
 80024d6:	6821      	ldr	r1, [r4, #0]
 80024d8:	02db      	lsls	r3, r3, #11
 80024da:	430b      	orrs	r3, r1
 80024dc:	6023      	str	r3, [r4, #0]
 80024de:	6823      	ldr	r3, [r4, #0]
 80024e0:	431a      	orrs	r2, r3
 80024e2:	6022      	str	r2, [r4, #0]
      if (RCC_OscInitStruct->HSEState != RCC_HSE_OFF)
 80024e4:	e7e3      	b.n	80024ae <HAL_RCC_OscConfig+0x4e>
      __HAL_RCC_HSE_CONFIG(RCC_OscInitStruct->HSEState);
 80024e6:	6822      	ldr	r2, [r4, #0]
 80024e8:	496f      	ldr	r1, [pc, #444]	@ (80026a8 <HAL_RCC_OscConfig+0x248>)
 80024ea:	400a      	ands	r2, r1
 80024ec:	6022      	str	r2, [r4, #0]
 80024ee:	6822      	ldr	r2, [r4, #0]
 80024f0:	496e      	ldr	r1, [pc, #440]	@ (80026ac <HAL_RCC_OscConfig+0x24c>)
 80024f2:	400a      	ands	r2, r1
 80024f4:	6022      	str	r2, [r4, #0]
      if (RCC_OscInitStruct->HSEState != RCC_HSE_OFF)
 80024f6:	2b00      	cmp	r3, #0
 80024f8:	d1d9      	bne.n	80024ae <HAL_RCC_OscConfig+0x4e>
        tickstart = HAL_GetTick();
 80024fa:	f7fe fedb 	bl	80012b4 <HAL_GetTick>
        while (READ_BIT(RCC->CR, RCC_CR_HSERDY) != 0U)
 80024fe:	2780      	movs	r7, #128	@ 0x80
        tickstart = HAL_GetTick();
 8002500:	0006      	movs	r6, r0
        while (READ_BIT(RCC->CR, RCC_CR_HSERDY) != 0U)
 8002502:	02bf      	lsls	r7, r7, #10
 8002504:	6823      	ldr	r3, [r4, #0]
 8002506:	423b      	tst	r3, r7
 8002508:	d0b2      	beq.n	8002470 <HAL_RCC_OscConfig+0x10>
          if ((HAL_GetTick() - tickstart) > RCC_HSE_TIMEOUT_VALUE)
 800250a:	f7fe fed3 	bl	80012b4 <HAL_GetTick>
 800250e:	1b80      	subs	r0, r0, r6
 8002510:	2864      	cmp	r0, #100	@ 0x64
 8002512:	d9f7      	bls.n	8002504 <HAL_RCC_OscConfig+0xa4>
 8002514:	e7d8      	b.n	80024c8 <HAL_RCC_OscConfig+0x68>
    temp_sysclksrc = __HAL_RCC_GET_SYSCLK_SOURCE();
 8002516:	2238      	movs	r2, #56	@ 0x38
 8002518:	4c62      	ldr	r4, [pc, #392]	@ (80026a4 <HAL_RCC_OscConfig+0x244>)
      if (RCC_OscInitStruct->HSIState == RCC_HSI_OFF)
 800251a:	68eb      	ldr	r3, [r5, #12]
    temp_sysclksrc = __HAL_RCC_GET_SYSCLK_SOURCE();
 800251c:	68a1      	ldr	r1, [r4, #8]
    if (temp_sysclksrc == RCC_CFGR_SWS_HSI)
 800251e:	4211      	tst	r1, r2
 8002520:	d11c      	bne.n	800255c <HAL_RCC_OscConfig+0xfc>
      if (RCC_OscInitStruct->HSIState == RCC_HSI_OFF)
 8002522:	2b00      	cmp	r3, #0
 8002524:	d09f      	beq.n	8002466 <HAL_RCC_OscConfig+0x6>
        __HAL_RCC_HSI_CALIBRATIONVALUE_ADJUST(RCC_OscInitStruct->HSICalibrationValue);
 8002526:	6862      	ldr	r2, [r4, #4]
 8002528:	696b      	ldr	r3, [r5, #20]
 800252a:	4961      	ldr	r1, [pc, #388]	@ (80026b0 <HAL_RCC_OscConfig+0x250>)
 800252c:	021b      	lsls	r3, r3, #8
 800252e:	400a      	ands	r2, r1
 8002530:	4313      	orrs	r3, r2
 8002532:	6063      	str	r3, [r4, #4]
          __HAL_RCC_HSI_CONFIG(RCC_OscInitStruct->HSIDiv);
 8002534:	6823      	ldr	r3, [r4, #0]
 8002536:	4a5f      	ldr	r2, [pc, #380]	@ (80026b4 <HAL_RCC_OscConfig+0x254>)
          SystemCoreClock = (HSI_VALUE / (1UL << ((READ_BIT(RCC->CR, RCC_CR_HSIDIV)) >> RCC_CR_HSIDIV_Pos)));
 8002538:	495f      	ldr	r1, [pc, #380]	@ (80026b8 <HAL_RCC_OscConfig+0x258>)
          __HAL_RCC_HSI_CONFIG(RCC_OscInitStruct->HSIDiv);
 800253a:	4013      	ands	r3, r2
 800253c:	692a      	ldr	r2, [r5, #16]
 800253e:	4313      	orrs	r3, r2
 8002540:	6023      	str	r3, [r4, #0]
          SystemCoreClock = (HSI_VALUE / (1UL << ((READ_BIT(RCC->CR, RCC_CR_HSIDIV)) >> RCC_CR_HSIDIV_Pos)));
 8002542:	6823      	ldr	r3, [r4, #0]
 8002544:	4a5d      	ldr	r2, [pc, #372]	@ (80026bc <HAL_RCC_OscConfig+0x25c>)
 8002546:	049b      	lsls	r3, r3, #18
 8002548:	0f5b      	lsrs	r3, r3, #29
 800254a:	40da      	lsrs	r2, r3
        if (HAL_InitTick(uwTickPrio) != HAL_OK)
 800254c:	4b5c      	ldr	r3, [pc, #368]	@ (80026c0 <HAL_RCC_OscConfig+0x260>)
          SystemCoreClock = (HSI_VALUE / (1UL << ((READ_BIT(RCC->CR, RCC_CR_HSIDIV)) >> RCC_CR_HSIDIV_Pos)));
 800254e:	600a      	str	r2, [r1, #0]
        if (HAL_InitTick(uwTickPrio) != HAL_OK)
 8002550:	6818      	ldr	r0, [r3, #0]
 8002552:	f7fe fe6f 	bl	8001234 <HAL_InitTick>
 8002556:	2800      	cmp	r0, #0
 8002558:	d08d      	beq.n	8002476 <HAL_RCC_OscConfig+0x16>
 800255a:	e784      	b.n	8002466 <HAL_RCC_OscConfig+0x6>
      if (RCC_OscInitStruct->HSIState != RCC_HSI_OFF)
 800255c:	2b00      	cmp	r3, #0
 800255e:	d020      	beq.n	80025a2 <HAL_RCC_OscConfig+0x142>
        __HAL_RCC_HSI_CONFIG(RCC_OscInitStruct->HSIDiv);
 8002560:	6823      	ldr	r3, [r4, #0]
 8002562:	4a54      	ldr	r2, [pc, #336]	@ (80026b4 <HAL_RCC_OscConfig+0x254>)
        while (READ_BIT(RCC->CR, RCC_CR_HSIRDY) == 0U)
 8002564:	2780      	movs	r7, #128	@ 0x80
        __HAL_RCC_HSI_CONFIG(RCC_OscInitStruct->HSIDiv);
 8002566:	4013      	ands	r3, r2
 8002568:	692a      	ldr	r2, [r5, #16]
        while (READ_BIT(RCC->CR, RCC_CR_HSIRDY) == 0U)
 800256a:	00ff      	lsls	r7, r7, #3
        __HAL_RCC_HSI_CONFIG(RCC_OscInitStruct->HSIDiv);
 800256c:	4313      	orrs	r3, r2
 800256e:	6023      	str	r3, [r4, #0]
        __HAL_RCC_HSI_ENABLE();
 8002570:	2380      	movs	r3, #128	@ 0x80
 8002572:	6822      	ldr	r2, [r4, #0]
 8002574:	005b      	lsls	r3, r3, #1
 8002576:	4313      	orrs	r3, r2
 8002578:	6023      	str	r3, [r4, #0]
        tickstart = HAL_GetTick();
 800257a:	f7fe fe9b 	bl	80012b4 <HAL_GetTick>
 800257e:	0006      	movs	r6, r0
        while (READ_BIT(RCC->CR, RCC_CR_HSIRDY) == 0U)
 8002580:	6823      	ldr	r3, [r4, #0]
 8002582:	423b      	tst	r3, r7
 8002584:	d007      	beq.n	8002596 <HAL_RCC_OscConfig+0x136>
        __HAL_RCC_HSI_CALIBRATIONVALUE_ADJUST(RCC_OscInitStruct->HSICalibrationValue);
 8002586:	6862      	ldr	r2, [r4, #4]
 8002588:	696b      	ldr	r3, [r5, #20]
 800258a:	4949      	ldr	r1, [pc, #292]	@ (80026b0 <HAL_RCC_OscConfig+0x250>)
 800258c:	021b      	lsls	r3, r3, #8
 800258e:	400a      	ands	r2, r1
 8002590:	4313      	orrs	r3, r2
 8002592:	6063      	str	r3, [r4, #4]
 8002594:	e76f      	b.n	8002476 <HAL_RCC_OscConfig+0x16>
          if ((HAL_GetTick() - tickstart) > RCC_HSI_TIMEOUT_VALUE)
 8002596:	f7fe fe8d 	bl	80012b4 <HAL_GetTick>
 800259a:	1b80      	subs	r0, r0, r6
 800259c:	2802      	cmp	r0, #2
 800259e:	d9ef      	bls.n	8002580 <HAL_RCC_OscConfig+0x120>
 80025a0:	e792      	b.n	80024c8 <HAL_RCC_OscConfig+0x68>
        __HAL_RCC_HSI_DISABLE();
 80025a2:	6823      	ldr	r3, [r4, #0]
 80025a4:	4a47      	ldr	r2, [pc, #284]	@ (80026c4 <HAL_RCC_OscConfig+0x264>)
        while (READ_BIT(RCC->CR, RCC_CR_HSIRDY) != 0U)
 80025a6:	2780      	movs	r7, #128	@ 0x80
        __HAL_RCC_HSI_DISABLE();
 80025a8:	4013      	ands	r3, r2
 80025aa:	6023      	str	r3, [r4, #0]
        tickstart = HAL_GetTick();
 80025ac:	f7fe fe82 	bl	80012b4 <HAL_GetTick>
 80025b0:	0006      	movs	r6, r0
        while (READ_BIT(RCC->CR, RCC_CR_HSIRDY) != 0U)
 80025b2:	00ff      	lsls	r7, r7, #3
 80025b4:	6823      	ldr	r3, [r4, #0]
 80025b6:	423b      	tst	r3, r7
 80025b8:	d100      	bne.n	80025bc <HAL_RCC_OscConfig+0x15c>
 80025ba:	e75c      	b.n	8002476 <HAL_RCC_OscConfig+0x16>
          if ((HAL_GetTick() - tickstart) > RCC_HSI_TIMEOUT_VALUE)
 80025bc:	f7fe fe7a 	bl	80012b4 <HAL_GetTick>
 80025c0:	1b80      	subs	r0, r0, r6
 80025c2:	2802      	cmp	r0, #2
 80025c4:	d9f6      	bls.n	80025b4 <HAL_RCC_OscConfig+0x154>
 80025c6:	e77f      	b.n	80024c8 <HAL_RCC_OscConfig+0x68>
    if (__HAL_RCC_GET_SYSCLK_SOURCE() == RCC_CFGR_SWS_LSI)
 80025c8:	2138      	movs	r1, #56	@ 0x38
 80025ca:	4c36      	ldr	r4, [pc, #216]	@ (80026a4 <HAL_RCC_OscConfig+0x244>)
      if (RCC_OscInitStruct->LSIState == RCC_LSI_OFF)
 80025cc:	69aa      	ldr	r2, [r5, #24]
    if (__HAL_RCC_GET_SYSCLK_SOURCE() == RCC_CFGR_SWS_LSI)
 80025ce:	68a3      	ldr	r3, [r4, #8]
 80025d0:	400b      	ands	r3, r1
 80025d2:	2b18      	cmp	r3, #24
 80025d4:	d103      	bne.n	80025de <HAL_RCC_OscConfig+0x17e>
      if (RCC_OscInitStruct->LSIState == RCC_LSI_OFF)
 80025d6:	2a00      	cmp	r2, #0
 80025d8:	d000      	beq.n	80025dc <HAL_RCC_OscConfig+0x17c>
 80025da:	e750      	b.n	800247e <HAL_RCC_OscConfig+0x1e>
 80025dc:	e743      	b.n	8002466 <HAL_RCC_OscConfig+0x6>
      if (RCC_OscInitStruct->LSIState != RCC_LSI_OFF)
 80025de:	2301      	movs	r3, #1
 80025e0:	2a00      	cmp	r2, #0
 80025e2:	d010      	beq.n	8002606 <HAL_RCC_OscConfig+0x1a6>
        __HAL_RCC_LSI_ENABLE();
 80025e4:	6e22      	ldr	r2, [r4, #96]	@ 0x60
        while (READ_BIT(RCC->CSR2, RCC_CSR2_LSIRDY) == 0U)
 80025e6:	2702      	movs	r7, #2
        __HAL_RCC_LSI_ENABLE();
 80025e8:	4313      	orrs	r3, r2
 80025ea:	6623      	str	r3, [r4, #96]	@ 0x60
        tickstart = HAL_GetTick();
 80025ec:	f7fe fe62 	bl	80012b4 <HAL_GetTick>
 80025f0:	0006      	movs	r6, r0
        while (READ_BIT(RCC->CSR2, RCC_CSR2_LSIRDY) == 0U)
 80025f2:	6e23      	ldr	r3, [r4, #96]	@ 0x60
 80025f4:	423b      	tst	r3, r7
 80025f6:	d000      	beq.n	80025fa <HAL_RCC_OscConfig+0x19a>
 80025f8:	e741      	b.n	800247e <HAL_RCC_OscConfig+0x1e>
          if ((HAL_GetTick() - tickstart) > RCC_LSI_TIMEOUT_VALUE)
 80025fa:	f7fe fe5b 	bl	80012b4 <HAL_GetTick>
 80025fe:	1b80      	subs	r0, r0, r6
 8002600:	2802      	cmp	r0, #2
 8002602:	d9f6      	bls.n	80025f2 <HAL_RCC_OscConfig+0x192>
 8002604:	e760      	b.n	80024c8 <HAL_RCC_OscConfig+0x68>
        __HAL_RCC_LSI_DISABLE();
 8002606:	6e22      	ldr	r2, [r4, #96]	@ 0x60
        while (READ_BIT(RCC->CSR2, RCC_CSR2_LSIRDY) != 0U)
 8002608:	2702      	movs	r7, #2
        __HAL_RCC_LSI_DISABLE();
 800260a:	439a      	bics	r2, r3
 800260c:	6622      	str	r2, [r4, #96]	@ 0x60
        tickstart = HAL_GetTick();
 800260e:	f7fe fe51 	bl	80012b4 <HAL_GetTick>
 8002612:	0006      	movs	r6, r0
        while (READ_BIT(RCC->CSR2, RCC_CSR2_LSIRDY) != 0U)
 8002614:	6e23      	ldr	r3, [r4, #96]	@ 0x60
 8002616:	423b      	tst	r3, r7
 8002618:	d100      	bne.n	800261c <HAL_RCC_OscConfig+0x1bc>
 800261a:	e730      	b.n	800247e <HAL_RCC_OscConfig+0x1e>
          if ((HAL_GetTick() - tickstart) > RCC_LSI_TIMEOUT_VALUE)
 800261c:	f7fe fe4a 	bl	80012b4 <HAL_GetTick>
 8002620:	1b80      	subs	r0, r0, r6
 8002622:	2802      	cmp	r0, #2
 8002624:	d9f6      	bls.n	8002614 <HAL_RCC_OscConfig+0x1b4>
 8002626:	e74f      	b.n	80024c8 <HAL_RCC_OscConfig+0x68>
    if (__HAL_RCC_GET_SYSCLK_SOURCE() == RCC_CFGR_SWS_LSE)
 8002628:	2138      	movs	r1, #56	@ 0x38
 800262a:	4c1e      	ldr	r4, [pc, #120]	@ (80026a4 <HAL_RCC_OscConfig+0x244>)
      if (RCC_OscInitStruct->LSEState == RCC_LSE_OFF)
 800262c:	68a8      	ldr	r0, [r5, #8]
    if (__HAL_RCC_GET_SYSCLK_SOURCE() == RCC_CFGR_SWS_LSE)
 800262e:	68a3      	ldr	r3, [r4, #8]
 8002630:	400b      	ands	r3, r1
 8002632:	2b20      	cmp	r3, #32
 8002634:	d103      	bne.n	800263e <HAL_RCC_OscConfig+0x1de>
      if (RCC_OscInitStruct->LSEState == RCC_LSE_OFF)
 8002636:	4243      	negs	r3, r0
 8002638:	4158      	adcs	r0, r3
 800263a:	b2c0      	uxtb	r0, r0
 800263c:	e714      	b.n	8002468 <HAL_RCC_OscConfig+0x8>
      __HAL_RCC_LSE_CONFIG(RCC_OscInitStruct->LSEState);
 800263e:	6de3      	ldr	r3, [r4, #92]	@ 0x5c
 8002640:	2801      	cmp	r0, #1
 8002642:	d110      	bne.n	8002666 <HAL_RCC_OscConfig+0x206>
 8002644:	4303      	orrs	r3, r0
 8002646:	65e3      	str	r3, [r4, #92]	@ 0x5c
        tickstart = HAL_GetTick();
 8002648:	f7fe fe34 	bl	80012b4 <HAL_GetTick>
        while (READ_BIT(RCC->CSR1, RCC_CSR1_LSERDY) == 0U)
 800264c:	2602      	movs	r6, #2
        tickstart = HAL_GetTick();
 800264e:	0005      	movs	r5, r0
        while (READ_BIT(RCC->CSR1, RCC_CSR1_LSERDY) == 0U)
 8002650:	6de3      	ldr	r3, [r4, #92]	@ 0x5c
 8002652:	4233      	tst	r3, r6
 8002654:	d000      	beq.n	8002658 <HAL_RCC_OscConfig+0x1f8>
 8002656:	e717      	b.n	8002488 <HAL_RCC_OscConfig+0x28>
          if ((HAL_GetTick() - tickstart) > RCC_LSE_TIMEOUT_VALUE)
 8002658:	f7fe fe2c 	bl	80012b4 <HAL_GetTick>
 800265c:	4b1a      	ldr	r3, [pc, #104]	@ (80026c8 <HAL_RCC_OscConfig+0x268>)
 800265e:	1b40      	subs	r0, r0, r5
 8002660:	4298      	cmp	r0, r3
 8002662:	d9f5      	bls.n	8002650 <HAL_RCC_OscConfig+0x1f0>
 8002664:	e730      	b.n	80024c8 <HAL_RCC_OscConfig+0x68>
      __HAL_RCC_LSE_CONFIG(RCC_OscInitStruct->LSEState);
 8002666:	2805      	cmp	r0, #5
 8002668:	d105      	bne.n	8002676 <HAL_RCC_OscConfig+0x216>
 800266a:	4313      	orrs	r3, r2
 800266c:	65e3      	str	r3, [r4, #92]	@ 0x5c
 800266e:	2301      	movs	r3, #1
 8002670:	6de2      	ldr	r2, [r4, #92]	@ 0x5c
 8002672:	4313      	orrs	r3, r2
 8002674:	e7e7      	b.n	8002646 <HAL_RCC_OscConfig+0x1e6>
 8002676:	2101      	movs	r1, #1
 8002678:	438b      	bics	r3, r1
 800267a:	65e3      	str	r3, [r4, #92]	@ 0x5c
 800267c:	6de3      	ldr	r3, [r4, #92]	@ 0x5c
 800267e:	4393      	bics	r3, r2
 8002680:	65e3      	str	r3, [r4, #92]	@ 0x5c
      if (RCC_OscInitStruct->LSEState != RCC_LSE_OFF)
 8002682:	2800      	cmp	r0, #0
 8002684:	d1e0      	bne.n	8002648 <HAL_RCC_OscConfig+0x1e8>
        tickstart = HAL_GetTick();
 8002686:	f7fe fe15 	bl	80012b4 <HAL_GetTick>
        while (READ_BIT(RCC->CSR1, RCC_CSR1_LSERDY) != 0U)
 800268a:	2602      	movs	r6, #2
        tickstart = HAL_GetTick();
 800268c:	0005      	movs	r5, r0
        while (READ_BIT(RCC->CSR1, RCC_CSR1_LSERDY) != 0U)
 800268e:	6de3      	ldr	r3, [r4, #92]	@ 0x5c
 8002690:	4233      	tst	r3, r6
 8002692:	d100      	bne.n	8002696 <HAL_RCC_OscConfig+0x236>
 8002694:	e6f8      	b.n	8002488 <HAL_RCC_OscConfig+0x28>
          if ((HAL_GetTick() - tickstart) > RCC_LSE_TIMEOUT_VALUE)
 8002696:	f7fe fe0d 	bl	80012b4 <HAL_GetTick>
 800269a:	4b0b      	ldr	r3, [pc, #44]	@ (80026c8 <HAL_RCC_OscConfig+0x268>)
 800269c:	1b40      	subs	r0, r0, r5
 800269e:	4298      	cmp	r0, r3
 80026a0:	d9f5      	bls.n	800268e <HAL_RCC_OscConfig+0x22e>
 80026a2:	e711      	b.n	80024c8 <HAL_RCC_OscConfig+0x68>
 80026a4:	40021000 	.word	0x40021000
 80026a8:	fffeffff 	.word	0xfffeffff
 80026ac:	fffbffff 	.word	0xfffbffff
 80026b0:	ffff80ff 	.word	0xffff80ff
 80026b4:	ffffc7ff 	.word	0xffffc7ff
 80026b8:	20000004 	.word	0x20000004
 80026bc:	02dc6c00 	.word	0x02dc6c00
 80026c0:	2000000c 	.word	0x2000000c
 80026c4:	fffffeff 	.word	0xfffffeff
 80026c8:	00001388 	.word	0x00001388

080026cc <HAL_RCC_GetSysClockFreq>:
  uint32_t sysclockfreq;
#if defined(RCC_CR_SYSDIV)
  uint32_t sysclockdiv = (uint32_t)(((RCC->CR & RCC_CR_SYSDIV) >> RCC_CR_SYSDIV_Pos) + 1U);
#endif /* RCC_CR_SYSDIV */

  if (__HAL_RCC_GET_SYSCLK_SOURCE() == RCC_CFGR_SWS_HSI)
 80026cc:	2238      	movs	r2, #56	@ 0x38
 80026ce:	4b0f      	ldr	r3, [pc, #60]	@ (800270c <HAL_RCC_GetSysClockFreq+0x40>)
 80026d0:	6899      	ldr	r1, [r3, #8]
 80026d2:	4211      	tst	r1, r2
 80026d4:	d105      	bne.n	80026e2 <HAL_RCC_GetSysClockFreq+0x16>
  {
    /* HSISYS can be derived for HSI48 */
    hsidiv = (1UL << ((READ_BIT(RCC->CR, RCC_CR_HSIDIV)) >> RCC_CR_HSIDIV_Pos));
 80026d6:	681b      	ldr	r3, [r3, #0]

    /* HSI used as system clock source */
    sysclockfreq = (HSI_VALUE / hsidiv);
 80026d8:	480d      	ldr	r0, [pc, #52]	@ (8002710 <HAL_RCC_GetSysClockFreq+0x44>)
    hsidiv = (1UL << ((READ_BIT(RCC->CR, RCC_CR_HSIDIV)) >> RCC_CR_HSIDIV_Pos));
 80026da:	049b      	lsls	r3, r3, #18
 80026dc:	0f5b      	lsrs	r3, r3, #29
    sysclockfreq = (HSI_VALUE / hsidiv);
 80026de:	40d8      	lsrs	r0, r3
  }
#if defined(RCC_CR_SYSDIV)
  sysclockfreq = sysclockfreq / sysclockdiv;
#endif /* RCC_CR_SYSDIV */
  return sysclockfreq;
}
 80026e0:	4770      	bx	lr
  else if (__HAL_RCC_GET_SYSCLK_SOURCE() == RCC_CFGR_SWS_HSE)
 80026e2:	6899      	ldr	r1, [r3, #8]
 80026e4:	4011      	ands	r1, r2
 80026e6:	2908      	cmp	r1, #8
 80026e8:	d00b      	beq.n	8002702 <HAL_RCC_GetSysClockFreq+0x36>
  else if (__HAL_RCC_GET_SYSCLK_SOURCE() == RCC_CFGR_SWS_LSE)
 80026ea:	6899      	ldr	r1, [r3, #8]
 80026ec:	4011      	ands	r1, r2
 80026ee:	2920      	cmp	r1, #32
 80026f0:	d009      	beq.n	8002706 <HAL_RCC_GetSysClockFreq+0x3a>
  else if (__HAL_RCC_GET_SYSCLK_SOURCE() == RCC_CFGR_SWS_LSI)
 80026f2:	689b      	ldr	r3, [r3, #8]
    sysclockfreq = 0U;
 80026f4:	2000      	movs	r0, #0
  else if (__HAL_RCC_GET_SYSCLK_SOURCE() == RCC_CFGR_SWS_LSI)
 80026f6:	4013      	ands	r3, r2
 80026f8:	2b18      	cmp	r3, #24
 80026fa:	d1f1      	bne.n	80026e0 <HAL_RCC_GetSysClockFreq+0x14>
    sysclockfreq = LSI_VALUE;
 80026fc:	20fa      	movs	r0, #250	@ 0xfa
 80026fe:	01c0      	lsls	r0, r0, #7
 8002700:	e7ee      	b.n	80026e0 <HAL_RCC_GetSysClockFreq+0x14>
    sysclockfreq = HSE_VALUE;
 8002702:	4804      	ldr	r0, [pc, #16]	@ (8002714 <HAL_RCC_GetSysClockFreq+0x48>)
 8002704:	e7ec      	b.n	80026e0 <HAL_RCC_GetSysClockFreq+0x14>
    sysclockfreq = LSE_VALUE;
 8002706:	2080      	movs	r0, #128	@ 0x80
 8002708:	0200      	lsls	r0, r0, #8
 800270a:	e7e9      	b.n	80026e0 <HAL_RCC_GetSysClockFreq+0x14>
 800270c:	40021000 	.word	0x40021000
 8002710:	02dc6c00 	.word	0x02dc6c00
 8002714:	007a1200 	.word	0x007a1200

08002718 <HAL_RCC_ClockConfig>:
{
 8002718:	b5f7      	push	{r0, r1, r2, r4, r5, r6, r7, lr}
 800271a:	0004      	movs	r4, r0
 800271c:	000d      	movs	r5, r1
  if (RCC_ClkInitStruct == NULL)
 800271e:	2800      	cmp	r0, #0
 8002720:	d101      	bne.n	8002726 <HAL_RCC_ClockConfig+0xe>
    return HAL_ERROR;
 8002722:	2001      	movs	r0, #1
}
 8002724:	bdfe      	pop	{r1, r2, r3, r4, r5, r6, r7, pc}
  if (FLatency > __HAL_FLASH_GET_LATENCY())
 8002726:	2707      	movs	r7, #7
 8002728:	4e48      	ldr	r6, [pc, #288]	@ (800284c <HAL_RCC_ClockConfig+0x134>)
 800272a:	6833      	ldr	r3, [r6, #0]
 800272c:	403b      	ands	r3, r7
 800272e:	428b      	cmp	r3, r1
 8002730:	d32a      	bcc.n	8002788 <HAL_RCC_ClockConfig+0x70>
  if (((RCC_ClkInitStruct->ClockType) & RCC_CLOCKTYPE_HCLK) == RCC_CLOCKTYPE_HCLK)
 8002732:	6822      	ldr	r2, [r4, #0]
 8002734:	0793      	lsls	r3, r2, #30
 8002736:	d43b      	bmi.n	80027b0 <HAL_RCC_ClockConfig+0x98>
  if (((RCC_ClkInitStruct->ClockType) & RCC_CLOCKTYPE_SYSCLK) == RCC_CLOCKTYPE_SYSCLK)
 8002738:	07d2      	lsls	r2, r2, #31
 800273a:	d44a      	bmi.n	80027d2 <HAL_RCC_ClockConfig+0xba>
  if (FLatency < __HAL_FLASH_GET_LATENCY())
 800273c:	2707      	movs	r7, #7
 800273e:	6833      	ldr	r3, [r6, #0]
 8002740:	403b      	ands	r3, r7
 8002742:	42ab      	cmp	r3, r5
 8002744:	d90a      	bls.n	800275c <HAL_RCC_ClockConfig+0x44>
    __HAL_FLASH_SET_LATENCY(FLatency);
 8002746:	6833      	ldr	r3, [r6, #0]
 8002748:	43bb      	bics	r3, r7
 800274a:	432b      	orrs	r3, r5
 800274c:	6033      	str	r3, [r6, #0]
    tickstart = HAL_GetTick();
 800274e:	f7fe fdb1 	bl	80012b4 <HAL_GetTick>
 8002752:	9001      	str	r0, [sp, #4]
    while ((FLASH->ACR & FLASH_ACR_LATENCY) != FLatency)
 8002754:	6833      	ldr	r3, [r6, #0]
 8002756:	403b      	ands	r3, r7
 8002758:	42ab      	cmp	r3, r5
 800275a:	d167      	bne.n	800282c <HAL_RCC_ClockConfig+0x114>
  if (((RCC_ClkInitStruct->ClockType) & RCC_CLOCKTYPE_PCLK1) == RCC_CLOCKTYPE_PCLK1)
 800275c:	6823      	ldr	r3, [r4, #0]
 800275e:	4d3c      	ldr	r5, [pc, #240]	@ (8002850 <HAL_RCC_ClockConfig+0x138>)
 8002760:	075b      	lsls	r3, r3, #29
 8002762:	d46b      	bmi.n	800283c <HAL_RCC_ClockConfig+0x124>
  SystemCoreClock = (HAL_RCC_GetSysClockFreq() >> ((AHBPrescTable[(RCC->CFGR & RCC_CFGR_HPRE) \
 8002764:	f7ff ffb2 	bl	80026cc <HAL_RCC_GetSysClockFreq>
 8002768:	68ab      	ldr	r3, [r5, #8]
 800276a:	493a      	ldr	r1, [pc, #232]	@ (8002854 <HAL_RCC_ClockConfig+0x13c>)
                                                                  >> RCC_CFGR_HPRE_Pos]) & 0x1FU));
 800276c:	051b      	lsls	r3, r3, #20
 800276e:	0f1b      	lsrs	r3, r3, #28
  SystemCoreClock = (HAL_RCC_GetSysClockFreq() >> ((AHBPrescTable[(RCC->CFGR & RCC_CFGR_HPRE) \
 8002770:	009b      	lsls	r3, r3, #2
                                                                  >> RCC_CFGR_HPRE_Pos]) & 0x1FU));
 8002772:	585b      	ldr	r3, [r3, r1]
 8002774:	211f      	movs	r1, #31
 8002776:	400b      	ands	r3, r1
  SystemCoreClock = (HAL_RCC_GetSysClockFreq() >> ((AHBPrescTable[(RCC->CFGR & RCC_CFGR_HPRE) \
 8002778:	40d8      	lsrs	r0, r3
 800277a:	4a37      	ldr	r2, [pc, #220]	@ (8002858 <HAL_RCC_ClockConfig+0x140>)
  return HAL_InitTick(uwTickPrio);
 800277c:	4b37      	ldr	r3, [pc, #220]	@ (800285c <HAL_RCC_ClockConfig+0x144>)
  SystemCoreClock = (HAL_RCC_GetSysClockFreq() >> ((AHBPrescTable[(RCC->CFGR & RCC_CFGR_HPRE) \
 800277e:	6010      	str	r0, [r2, #0]
  return HAL_InitTick(uwTickPrio);
 8002780:	6818      	ldr	r0, [r3, #0]
 8002782:	f7fe fd57 	bl	8001234 <HAL_InitTick>
 8002786:	e7cd      	b.n	8002724 <HAL_RCC_ClockConfig+0xc>
    __HAL_FLASH_SET_LATENCY(FLatency);
 8002788:	6833      	ldr	r3, [r6, #0]
 800278a:	43bb      	bics	r3, r7
 800278c:	430b      	orrs	r3, r1
 800278e:	6033      	str	r3, [r6, #0]
    tickstart = HAL_GetTick();
 8002790:	f7fe fd90 	bl	80012b4 <HAL_GetTick>
 8002794:	9001      	str	r0, [sp, #4]
    while ((FLASH->ACR & FLASH_ACR_LATENCY) != FLatency)
 8002796:	6833      	ldr	r3, [r6, #0]
 8002798:	403b      	ands	r3, r7
 800279a:	42ab      	cmp	r3, r5
 800279c:	d0c9      	beq.n	8002732 <HAL_RCC_ClockConfig+0x1a>
      if ((HAL_GetTick() - tickstart) > RCC_CLOCKSWITCH_TIMEOUT_VALUE)
 800279e:	f7fe fd89 	bl	80012b4 <HAL_GetTick>
 80027a2:	9b01      	ldr	r3, [sp, #4]
 80027a4:	1ac0      	subs	r0, r0, r3
 80027a6:	4b2e      	ldr	r3, [pc, #184]	@ (8002860 <HAL_RCC_ClockConfig+0x148>)
 80027a8:	4298      	cmp	r0, r3
 80027aa:	d9f4      	bls.n	8002796 <HAL_RCC_ClockConfig+0x7e>
        return HAL_TIMEOUT;
 80027ac:	2003      	movs	r0, #3
 80027ae:	e7b9      	b.n	8002724 <HAL_RCC_ClockConfig+0xc>
    if (((RCC_ClkInitStruct->ClockType) & RCC_CLOCKTYPE_PCLK1) == RCC_CLOCKTYPE_PCLK1)
 80027b0:	4927      	ldr	r1, [pc, #156]	@ (8002850 <HAL_RCC_ClockConfig+0x138>)
 80027b2:	0753      	lsls	r3, r2, #29
 80027b4:	d506      	bpl.n	80027c4 <HAL_RCC_ClockConfig+0xac>
      MODIFY_REG(RCC->CFGR, RCC_CFGR_PPRE, RCC_HCLK_DIV16);
 80027b6:	6888      	ldr	r0, [r1, #8]
 80027b8:	4b2a      	ldr	r3, [pc, #168]	@ (8002864 <HAL_RCC_ClockConfig+0x14c>)
 80027ba:	4018      	ands	r0, r3
 80027bc:	23b0      	movs	r3, #176	@ 0xb0
 80027be:	011b      	lsls	r3, r3, #4
 80027c0:	4303      	orrs	r3, r0
 80027c2:	608b      	str	r3, [r1, #8]
    MODIFY_REG(RCC->CFGR, RCC_CFGR_HPRE, RCC_ClkInitStruct->AHBCLKDivider);
 80027c4:	688b      	ldr	r3, [r1, #8]
 80027c6:	4828      	ldr	r0, [pc, #160]	@ (8002868 <HAL_RCC_ClockConfig+0x150>)
 80027c8:	4003      	ands	r3, r0
 80027ca:	68e0      	ldr	r0, [r4, #12]
 80027cc:	4303      	orrs	r3, r0
 80027ce:	608b      	str	r3, [r1, #8]
 80027d0:	e7b2      	b.n	8002738 <HAL_RCC_ClockConfig+0x20>
    if (RCC_ClkInitStruct->SYSCLKSource == RCC_SYSCLKSOURCE_HSE)
 80027d2:	6862      	ldr	r2, [r4, #4]
 80027d4:	4f1e      	ldr	r7, [pc, #120]	@ (8002850 <HAL_RCC_ClockConfig+0x138>)
 80027d6:	2a01      	cmp	r2, #1
 80027d8:	d119      	bne.n	800280e <HAL_RCC_ClockConfig+0xf6>
      if (READ_BIT(RCC->CR, RCC_CR_HSERDY) == 0U)
 80027da:	683b      	ldr	r3, [r7, #0]
 80027dc:	039b      	lsls	r3, r3, #14
 80027de:	d5a0      	bpl.n	8002722 <HAL_RCC_ClockConfig+0xa>
    MODIFY_REG(RCC->CFGR, RCC_CFGR_SW, RCC_ClkInitStruct->SYSCLKSource);
 80027e0:	2107      	movs	r1, #7
 80027e2:	68bb      	ldr	r3, [r7, #8]
 80027e4:	438b      	bics	r3, r1
 80027e6:	4313      	orrs	r3, r2
 80027e8:	60bb      	str	r3, [r7, #8]
    tickstart = HAL_GetTick();
 80027ea:	f7fe fd63 	bl	80012b4 <HAL_GetTick>
 80027ee:	9001      	str	r0, [sp, #4]
    while (__HAL_RCC_GET_SYSCLK_SOURCE() != (RCC_ClkInitStruct->SYSCLKSource << RCC_CFGR_SWS_Pos))
 80027f0:	2338      	movs	r3, #56	@ 0x38
 80027f2:	68ba      	ldr	r2, [r7, #8]
 80027f4:	401a      	ands	r2, r3
 80027f6:	6863      	ldr	r3, [r4, #4]
 80027f8:	00db      	lsls	r3, r3, #3
 80027fa:	429a      	cmp	r2, r3
 80027fc:	d09e      	beq.n	800273c <HAL_RCC_ClockConfig+0x24>
      if ((HAL_GetTick() - tickstart) > RCC_CLOCKSWITCH_TIMEOUT_VALUE)
 80027fe:	f7fe fd59 	bl	80012b4 <HAL_GetTick>
 8002802:	9b01      	ldr	r3, [sp, #4]
 8002804:	1ac0      	subs	r0, r0, r3
 8002806:	4b16      	ldr	r3, [pc, #88]	@ (8002860 <HAL_RCC_ClockConfig+0x148>)
 8002808:	4298      	cmp	r0, r3
 800280a:	d9f1      	bls.n	80027f0 <HAL_RCC_ClockConfig+0xd8>
 800280c:	e7ce      	b.n	80027ac <HAL_RCC_ClockConfig+0x94>
    else if (RCC_ClkInitStruct->SYSCLKSource == RCC_SYSCLKSOURCE_HSI)
 800280e:	2a00      	cmp	r2, #0
 8002810:	d103      	bne.n	800281a <HAL_RCC_ClockConfig+0x102>
      if (READ_BIT(RCC->CR, RCC_CR_HSIRDY) == 0U)
 8002812:	683b      	ldr	r3, [r7, #0]
 8002814:	055b      	lsls	r3, r3, #21
 8002816:	d4e3      	bmi.n	80027e0 <HAL_RCC_ClockConfig+0xc8>
 8002818:	e783      	b.n	8002722 <HAL_RCC_ClockConfig+0xa>
    else if (RCC_ClkInitStruct->SYSCLKSource == RCC_SYSCLKSOURCE_LSI)
 800281a:	2302      	movs	r3, #2
 800281c:	2a03      	cmp	r2, #3
 800281e:	d103      	bne.n	8002828 <HAL_RCC_ClockConfig+0x110>
      if (READ_BIT(RCC->CSR2, RCC_CSR2_LSIRDY) == 0U)
 8002820:	6e39      	ldr	r1, [r7, #96]	@ 0x60
      if (READ_BIT(RCC->CSR1, RCC_CSR1_LSERDY) == 0U)
 8002822:	4219      	tst	r1, r3
 8002824:	d1dc      	bne.n	80027e0 <HAL_RCC_ClockConfig+0xc8>
 8002826:	e77c      	b.n	8002722 <HAL_RCC_ClockConfig+0xa>
 8002828:	6df9      	ldr	r1, [r7, #92]	@ 0x5c
 800282a:	e7fa      	b.n	8002822 <HAL_RCC_ClockConfig+0x10a>
      if ((HAL_GetTick() - tickstart) > RCC_CLOCKSWITCH_TIMEOUT_VALUE)
 800282c:	f7fe fd42 	bl	80012b4 <HAL_GetTick>
 8002830:	9b01      	ldr	r3, [sp, #4]
 8002832:	1ac0      	subs	r0, r0, r3
 8002834:	4b0a      	ldr	r3, [pc, #40]	@ (8002860 <HAL_RCC_ClockConfig+0x148>)
 8002836:	4298      	cmp	r0, r3
 8002838:	d98c      	bls.n	8002754 <HAL_RCC_ClockConfig+0x3c>
 800283a:	e7b7      	b.n	80027ac <HAL_RCC_ClockConfig+0x94>
    MODIFY_REG(RCC->CFGR, RCC_CFGR_PPRE, RCC_ClkInitStruct->APB1CLKDivider);
 800283c:	68ab      	ldr	r3, [r5, #8]
 800283e:	4a0b      	ldr	r2, [pc, #44]	@ (800286c <HAL_RCC_ClockConfig+0x154>)
 8002840:	4013      	ands	r3, r2
 8002842:	6922      	ldr	r2, [r4, #16]
 8002844:	4313      	orrs	r3, r2
 8002846:	60ab      	str	r3, [r5, #8]
 8002848:	e78c      	b.n	8002764 <HAL_RCC_ClockConfig+0x4c>
 800284a:	46c0      	nop			@ (mov r8, r8)
 800284c:	40022000 	.word	0x40022000
 8002850:	40021000 	.word	0x40021000
 8002854:	08003a38 	.word	0x08003a38
 8002858:	20000004 	.word	0x20000004
 800285c:	2000000c 	.word	0x2000000c
 8002860:	00001388 	.word	0x00001388
 8002864:	ffff84ff 	.word	0xffff84ff
 8002868:	fffff0ff 	.word	0xfffff0ff
 800286c:	ffff8fff 	.word	0xffff8fff

08002870 <HAL_RCCEx_PeriphCLKConfig>:
  * @note (*) not available on all devices
  *
  * @retval HAL status
  */
HAL_StatusTypeDef HAL_RCCEx_PeriphCLKConfig(const RCC_PeriphCLKInitTypeDef  *PeriphClkInit)
{
 8002870:	b5f0      	push	{r4, r5, r6, r7, lr}

  /* Check the parameters */
  assert_param(IS_RCC_PERIPHCLOCK(PeriphClkInit->PeriphClockSelection));

  /*-------------------------- RTC clock source configuration ----------------------*/
  if ((PeriphClkInit->PeriphClockSelection & RCC_PERIPHCLK_RTC) == RCC_PERIPHCLK_RTC)
 8002872:	6803      	ldr	r3, [r0, #0]
{
 8002874:	0005      	movs	r5, r0
 8002876:	b085      	sub	sp, #20
  HAL_StatusTypeDef status = HAL_OK;   /* Final status */
 8002878:	2000      	movs	r0, #0
  if ((PeriphClkInit->PeriphClockSelection & RCC_PERIPHCLK_RTC) == RCC_PERIPHCLK_RTC)
 800287a:	065b      	lsls	r3, r3, #25
 800287c:	d523      	bpl.n	80028c6 <HAL_RCCEx_PeriphCLKConfig+0x56>

    /* Check for RTC Parameters used to output RTCCLK */
    assert_param(IS_RCC_RTCCLKSOURCE(PeriphClkInit->RTCClockSelection));

    /* Enable Power Clock */
    if (__HAL_RCC_PWR_IS_CLK_DISABLED())
 800287e:	2280      	movs	r2, #128	@ 0x80
 8002880:	4c39      	ldr	r4, [pc, #228]	@ (8002968 <HAL_RCCEx_PeriphCLKConfig+0xf8>)
 8002882:	0552      	lsls	r2, r2, #21
 8002884:	6be3      	ldr	r3, [r4, #60]	@ 0x3c
    FlagStatus       pwrclkchanged = RESET;
 8002886:	0006      	movs	r6, r0
    if (__HAL_RCC_PWR_IS_CLK_DISABLED())
 8002888:	4213      	tst	r3, r2
 800288a:	d107      	bne.n	800289c <HAL_RCCEx_PeriphCLKConfig+0x2c>
    {
      __HAL_RCC_PWR_CLK_ENABLE();
 800288c:	6be3      	ldr	r3, [r4, #60]	@ 0x3c
      pwrclkchanged = SET;
 800288e:	3601      	adds	r6, #1
      __HAL_RCC_PWR_CLK_ENABLE();
 8002890:	4313      	orrs	r3, r2
 8002892:	63e3      	str	r3, [r4, #60]	@ 0x3c
 8002894:	6be3      	ldr	r3, [r4, #60]	@ 0x3c
 8002896:	4013      	ands	r3, r2
 8002898:	9303      	str	r3, [sp, #12]
 800289a:	9b03      	ldr	r3, [sp, #12]
    }


    /* Reset the RTC domain only if the RTC Clock source selection is modified from default */
    tmpregister = READ_BIT(RCC->CSR1, RCC_CSR1_RTCSEL);
 800289c:	6de2      	ldr	r2, [r4, #92]	@ 0x5c
 800289e:	23c0      	movs	r3, #192	@ 0xc0
 80028a0:	0011      	movs	r1, r2
 80028a2:	009b      	lsls	r3, r3, #2

    /* Reset the RTC domain only if the RTC Clock source selection is modified */
    if ((tmpregister != RCC_RTCCLKSOURCE_NONE) && (tmpregister != PeriphClkInit->RTCClockSelection))
 80028a4:	69a8      	ldr	r0, [r5, #24]
 80028a6:	4f31      	ldr	r7, [pc, #196]	@ (800296c <HAL_RCCEx_PeriphCLKConfig+0xfc>)
    tmpregister = READ_BIT(RCC->CSR1, RCC_CSR1_RTCSEL);
 80028a8:	4019      	ands	r1, r3
    if ((tmpregister != RCC_RTCCLKSOURCE_NONE) && (tmpregister != PeriphClkInit->RTCClockSelection))
 80028aa:	421a      	tst	r2, r3
 80028ac:	d13b      	bne.n	8002926 <HAL_RCCEx_PeriphCLKConfig+0xb6>
  HAL_StatusTypeDef status = HAL_OK;   /* Final status */
 80028ae:	2000      	movs	r0, #0
    }

    if (ret == HAL_OK)
    {
      /* Apply new RTC clock source selection */
      __HAL_RCC_RTC_CONFIG(PeriphClkInit->RTCClockSelection);
 80028b0:	6de3      	ldr	r3, [r4, #92]	@ 0x5c
 80028b2:	69aa      	ldr	r2, [r5, #24]
 80028b4:	403b      	ands	r3, r7
 80028b6:	4313      	orrs	r3, r2
 80028b8:	65e3      	str	r3, [r4, #92]	@ 0x5c
      /* set overall return value */
      status = ret;
    }

    /* Restore clock configuration if changed */
    if (pwrclkchanged == SET)
 80028ba:	2e01      	cmp	r6, #1
 80028bc:	d103      	bne.n	80028c6 <HAL_RCCEx_PeriphCLKConfig+0x56>
    {
      __HAL_RCC_PWR_CLK_DISABLE();
 80028be:	6be3      	ldr	r3, [r4, #60]	@ 0x3c
 80028c0:	4a2b      	ldr	r2, [pc, #172]	@ (8002970 <HAL_RCCEx_PeriphCLKConfig+0x100>)
 80028c2:	4013      	ands	r3, r2
 80028c4:	63e3      	str	r3, [r4, #60]	@ 0x3c
    }
  }

  /*-------------------------- USART1 clock source configuration -------------------*/
  if (((PeriphClkInit->PeriphClockSelection) & RCC_PERIPHCLK_USART1) == RCC_PERIPHCLK_USART1)
 80028c6:	682a      	ldr	r2, [r5, #0]
 80028c8:	07d3      	lsls	r3, r2, #31
 80028ca:	d506      	bpl.n	80028da <HAL_RCCEx_PeriphCLKConfig+0x6a>
  {
    /* Check the parameters */
    assert_param(IS_RCC_USART1CLKSOURCE(PeriphClkInit->Usart1ClockSelection));

    /* Configure the USART1 clock source */
    __HAL_RCC_USART1_CONFIG(PeriphClkInit->Usart1ClockSelection);
 80028cc:	2403      	movs	r4, #3
 80028ce:	4926      	ldr	r1, [pc, #152]	@ (8002968 <HAL_RCCEx_PeriphCLKConfig+0xf8>)
 80028d0:	6d4b      	ldr	r3, [r1, #84]	@ 0x54
 80028d2:	43a3      	bics	r3, r4
 80028d4:	68ac      	ldr	r4, [r5, #8]
 80028d6:	4323      	orrs	r3, r4
 80028d8:	654b      	str	r3, [r1, #84]	@ 0x54
  }

  /*-------------------------- I2C1 clock source configuration ---------------------*/
  if (((PeriphClkInit->PeriphClockSelection) & RCC_PERIPHCLK_I2C1) == RCC_PERIPHCLK_I2C1)
 80028da:	0793      	lsls	r3, r2, #30
 80028dc:	d506      	bpl.n	80028ec <HAL_RCCEx_PeriphCLKConfig+0x7c>
  {
    /* Check the parameters */
    assert_param(IS_RCC_I2C1CLKSOURCE(PeriphClkInit->I2c1ClockSelection));

    /* Configure the I2C1 clock source */
    __HAL_RCC_I2C1_CONFIG(PeriphClkInit->I2c1ClockSelection);
 80028de:	4922      	ldr	r1, [pc, #136]	@ (8002968 <HAL_RCCEx_PeriphCLKConfig+0xf8>)
 80028e0:	4c24      	ldr	r4, [pc, #144]	@ (8002974 <HAL_RCCEx_PeriphCLKConfig+0x104>)
 80028e2:	6d4b      	ldr	r3, [r1, #84]	@ 0x54
 80028e4:	4023      	ands	r3, r4
 80028e6:	68ec      	ldr	r4, [r5, #12]
 80028e8:	4323      	orrs	r3, r4
 80028ea:	654b      	str	r3, [r1, #84]	@ 0x54
  }

  /*-------------------------- ADC clock source configuration ----------------------*/
  if (((PeriphClkInit->PeriphClockSelection) & RCC_PERIPHCLK_ADC) == RCC_PERIPHCLK_ADC)
 80028ec:	0693      	lsls	r3, r2, #26
 80028ee:	d506      	bpl.n	80028fe <HAL_RCCEx_PeriphCLKConfig+0x8e>
  {
    /* Check the parameters */
    assert_param(IS_RCC_ADCCLKSOURCE(PeriphClkInit->AdcClockSelection));

    /* Configure the ADC interface clock source */
    __HAL_RCC_ADC_CONFIG(PeriphClkInit->AdcClockSelection);
 80028f0:	491d      	ldr	r1, [pc, #116]	@ (8002968 <HAL_RCCEx_PeriphCLKConfig+0xf8>)
 80028f2:	696c      	ldr	r4, [r5, #20]
 80028f4:	6d4b      	ldr	r3, [r1, #84]	@ 0x54
 80028f6:	009b      	lsls	r3, r3, #2
 80028f8:	089b      	lsrs	r3, r3, #2
 80028fa:	4323      	orrs	r3, r4
 80028fc:	654b      	str	r3, [r1, #84]	@ 0x54
    __HAL_RCC_FDCAN1_CONFIG(PeriphClkInit->Fdcan1ClockSelection);

  }
#endif /* FDCAN1 */
  /*-------------------------- I2S1 clock source configuration ---------------------*/
  if (((PeriphClkInit->PeriphClockSelection) & RCC_PERIPHCLK_I2S1) == RCC_PERIPHCLK_I2S1)
 80028fe:	0753      	lsls	r3, r2, #29
 8002900:	d506      	bpl.n	8002910 <HAL_RCCEx_PeriphCLKConfig+0xa0>
  {
    /* Check the parameters */
    assert_param(IS_RCC_I2S1CLKSOURCE(PeriphClkInit->I2s1ClockSelection));

    /* Configure the I2S1 clock source */
    __HAL_RCC_I2S1_CONFIG(PeriphClkInit->I2s1ClockSelection);
 8002902:	4919      	ldr	r1, [pc, #100]	@ (8002968 <HAL_RCCEx_PeriphCLKConfig+0xf8>)
 8002904:	4c1c      	ldr	r4, [pc, #112]	@ (8002978 <HAL_RCCEx_PeriphCLKConfig+0x108>)
 8002906:	6d4b      	ldr	r3, [r1, #84]	@ 0x54
 8002908:	4023      	ands	r3, r4
 800290a:	692c      	ldr	r4, [r5, #16]
 800290c:	4323      	orrs	r3, r4
 800290e:	654b      	str	r3, [r1, #84]	@ 0x54
  }
  /*------------------------------------ HSI Kernel clock source configuration --------------------------------------*/
  if (((PeriphClkInit->PeriphClockSelection) & RCC_PERIPHCLK_HSIKER) == RCC_PERIPHCLK_HSIKER)
 8002910:	0612      	lsls	r2, r2, #24
 8002912:	d506      	bpl.n	8002922 <HAL_RCCEx_PeriphCLKConfig+0xb2>
  {
    /* Check the parameters */
    assert_param(IS_RCC_HSIKERDIV(PeriphClkInit->HSIKerClockDivider));

    /* Configure the HSI Kernel clock source Divider */
    __HAL_RCC_HSIKER_CONFIG(PeriphClkInit->HSIKerClockDivider);
 8002914:	21e0      	movs	r1, #224	@ 0xe0
 8002916:	4a14      	ldr	r2, [pc, #80]	@ (8002968 <HAL_RCCEx_PeriphCLKConfig+0xf8>)
 8002918:	6813      	ldr	r3, [r2, #0]
 800291a:	438b      	bics	r3, r1
 800291c:	6869      	ldr	r1, [r5, #4]
 800291e:	430b      	orrs	r3, r1
 8002920:	6013      	str	r3, [r2, #0]
  }
  return status;
}
 8002922:	b005      	add	sp, #20
 8002924:	bdf0      	pop	{r4, r5, r6, r7, pc}
    if ((tmpregister != RCC_RTCCLKSOURCE_NONE) && (tmpregister != PeriphClkInit->RTCClockSelection))
 8002926:	4288      	cmp	r0, r1
 8002928:	d0c1      	beq.n	80028ae <HAL_RCCEx_PeriphCLKConfig+0x3e>
      __HAL_RCC_BACKUPRESET_FORCE();
 800292a:	2280      	movs	r2, #128	@ 0x80
      tmpregister = READ_BIT(RCC->CSR1, ~(RCC_CSR1_RTCSEL));
 800292c:	6de3      	ldr	r3, [r4, #92]	@ 0x5c
      __HAL_RCC_BACKUPRESET_FORCE();
 800292e:	6de0      	ldr	r0, [r4, #92]	@ 0x5c
      tmpregister = READ_BIT(RCC->CSR1, ~(RCC_CSR1_RTCSEL));
 8002930:	0019      	movs	r1, r3
      __HAL_RCC_BACKUPRESET_FORCE();
 8002932:	0252      	lsls	r2, r2, #9
 8002934:	4302      	orrs	r2, r0
 8002936:	65e2      	str	r2, [r4, #92]	@ 0x5c
      __HAL_RCC_BACKUPRESET_RELEASE();
 8002938:	6de2      	ldr	r2, [r4, #92]	@ 0x5c
 800293a:	4810      	ldr	r0, [pc, #64]	@ (800297c <HAL_RCCEx_PeriphCLKConfig+0x10c>)
      tmpregister = READ_BIT(RCC->CSR1, ~(RCC_CSR1_RTCSEL));
 800293c:	4039      	ands	r1, r7
      __HAL_RCC_BACKUPRESET_RELEASE();
 800293e:	4002      	ands	r2, r0
 8002940:	65e2      	str	r2, [r4, #92]	@ 0x5c
      RCC->CSR1 = tmpregister;
 8002942:	65e1      	str	r1, [r4, #92]	@ 0x5c
    if (HAL_IS_BIT_SET(tmpregister, RCC_CSR1_LSEON))
 8002944:	07db      	lsls	r3, r3, #31
 8002946:	d5b2      	bpl.n	80028ae <HAL_RCCEx_PeriphCLKConfig+0x3e>
      tickstart = HAL_GetTick();
 8002948:	f7fe fcb4 	bl	80012b4 <HAL_GetTick>
 800294c:	9001      	str	r0, [sp, #4]
      while (READ_BIT(RCC->CSR1, RCC_CSR1_LSERDY) == 0U)
 800294e:	2202      	movs	r2, #2
 8002950:	6de3      	ldr	r3, [r4, #92]	@ 0x5c
 8002952:	4213      	tst	r3, r2
 8002954:	d1ab      	bne.n	80028ae <HAL_RCCEx_PeriphCLKConfig+0x3e>
        if ((HAL_GetTick() - tickstart) > RCC_LSE_TIMEOUT_VALUE)
 8002956:	f7fe fcad 	bl	80012b4 <HAL_GetTick>
 800295a:	9b01      	ldr	r3, [sp, #4]
 800295c:	1ac0      	subs	r0, r0, r3
 800295e:	4b08      	ldr	r3, [pc, #32]	@ (8002980 <HAL_RCCEx_PeriphCLKConfig+0x110>)
 8002960:	4298      	cmp	r0, r3
 8002962:	d9f4      	bls.n	800294e <HAL_RCCEx_PeriphCLKConfig+0xde>
      status = ret;
 8002964:	2003      	movs	r0, #3
 8002966:	e7a8      	b.n	80028ba <HAL_RCCEx_PeriphCLKConfig+0x4a>
 8002968:	40021000 	.word	0x40021000
 800296c:	fffffcff 	.word	0xfffffcff
 8002970:	efffffff 	.word	0xefffffff
 8002974:	ffffcfff 	.word	0xffffcfff
 8002978:	ffff3fff 	.word	0xffff3fff
 800297c:	fffeffff 	.word	0xfffeffff
 8002980:	00001388 	.word	0x00001388

08002984 <HAL_RTC_WaitForSynchro>:
  *         correctly copied into the RTC_TR and RTC_DR shadow registers.
  * @param  hrtc RTC handle
  * @retval HAL status
  */
HAL_StatusTypeDef HAL_RTC_WaitForSynchro(RTC_HandleTypeDef *hrtc)
{
 8002984:	b5f7      	push	{r0, r1, r2, r4, r5, r6, r7, lr}
  uint32_t tickstart;

  /* Clear RSF flag */
  CLEAR_BIT(RTC->ICSR, RTC_ICSR_RSF);
 8002986:	2620      	movs	r6, #32
 8002988:	4d0d      	ldr	r5, [pc, #52]	@ (80029c0 <HAL_RTC_WaitForSynchro+0x3c>)
{
 800298a:	0004      	movs	r4, r0
  CLEAR_BIT(RTC->ICSR, RTC_ICSR_RSF);
 800298c:	68eb      	ldr	r3, [r5, #12]
  tickstart = HAL_GetTick();

  /* Wait the registers to be synchronised */
  while (READ_BIT(RTC->ICSR, RTC_ICSR_RSF) == 0U)
  {
    if ((HAL_GetTick() - tickstart) > RTC_TIMEOUT_VALUE)
 800298e:	27fa      	movs	r7, #250	@ 0xfa
  CLEAR_BIT(RTC->ICSR, RTC_ICSR_RSF);
 8002990:	43b3      	bics	r3, r6
 8002992:	60eb      	str	r3, [r5, #12]
  tickstart = HAL_GetTick();
 8002994:	f7fe fc8e 	bl	80012b4 <HAL_GetTick>
    if ((HAL_GetTick() - tickstart) > RTC_TIMEOUT_VALUE)
 8002998:	00bf      	lsls	r7, r7, #2
  tickstart = HAL_GetTick();
 800299a:	9001      	str	r0, [sp, #4]
  while (READ_BIT(RTC->ICSR, RTC_ICSR_RSF) == 0U)
 800299c:	68eb      	ldr	r3, [r5, #12]
 800299e:	4233      	tst	r3, r6
 80029a0:	d108      	bne.n	80029b4 <HAL_RTC_WaitForSynchro+0x30>
    if ((HAL_GetTick() - tickstart) > RTC_TIMEOUT_VALUE)
 80029a2:	f7fe fc87 	bl	80012b4 <HAL_GetTick>
 80029a6:	9b01      	ldr	r3, [sp, #4]
 80029a8:	1ac0      	subs	r0, r0, r3
 80029aa:	42b8      	cmp	r0, r7
 80029ac:	d9f6      	bls.n	800299c <HAL_RTC_WaitForSynchro+0x18>
    {
      /* New check to avoid false timeout detection in case of preemption */
      if (READ_BIT(RTC->ICSR, RTC_ICSR_RSF) == 0U)
 80029ae:	68eb      	ldr	r3, [r5, #12]
 80029b0:	4233      	tst	r3, r6
 80029b2:	d001      	beq.n	80029b8 <HAL_RTC_WaitForSynchro+0x34>
        break;
      }
    }
  }

  return HAL_OK;
 80029b4:	2000      	movs	r0, #0
}
 80029b6:	bdfe      	pop	{r1, r2, r3, r4, r5, r6, r7, pc}
        hrtc->State = HAL_RTC_STATE_TIMEOUT;
 80029b8:	2003      	movs	r0, #3
 80029ba:	3406      	adds	r4, #6
 80029bc:	77e0      	strb	r0, [r4, #31]
        return HAL_TIMEOUT;
 80029be:	e7fa      	b.n	80029b6 <HAL_RTC_WaitForSynchro+0x32>
 80029c0:	40002800 	.word	0x40002800

080029c4 <RTC_EnterInitMode>:
  *         __HAL_RTC_WRITEPROTECTION_DISABLE() before calling this function.
  * @param  hrtc RTC handle
  * @retval HAL status
  */
HAL_StatusTypeDef RTC_EnterInitMode(RTC_HandleTypeDef *hrtc)
{
 80029c4:	b5f7      	push	{r0, r1, r2, r4, r5, r6, r7, lr}
  uint32_t tickstart;
  HAL_StatusTypeDef status = HAL_OK;

  /* Check if the Initialization mode is set */
  if (READ_BIT(RTC->ICSR, RTC_ICSR_INITF) == 0U)
 80029c6:	4c15      	ldr	r4, [pc, #84]	@ (8002a1c <RTC_EnterInitMode+0x58>)
 80029c8:	2540      	movs	r5, #64	@ 0x40
 80029ca:	68e3      	ldr	r3, [r4, #12]
{
 80029cc:	9001      	str	r0, [sp, #4]
  if (READ_BIT(RTC->ICSR, RTC_ICSR_INITF) == 0U)
 80029ce:	001e      	movs	r6, r3
 80029d0:	402e      	ands	r6, r5
 80029d2:	422b      	tst	r3, r5
 80029d4:	d001      	beq.n	80029da <RTC_EnterInitMode+0x16>
  HAL_StatusTypeDef status = HAL_OK;
 80029d6:	2000      	movs	r0, #0
      }
    }
  }

  return status;
}
 80029d8:	bdfe      	pop	{r1, r2, r3, r4, r5, r6, r7, pc}
    SET_BIT(RTC->ICSR, RTC_ICSR_INIT);
 80029da:	2380      	movs	r3, #128	@ 0x80
 80029dc:	68e2      	ldr	r2, [r4, #12]
      if ((HAL_GetTick()  - tickstart) > RTC_TIMEOUT_VALUE)
 80029de:	27fa      	movs	r7, #250	@ 0xfa
    SET_BIT(RTC->ICSR, RTC_ICSR_INIT);
 80029e0:	4313      	orrs	r3, r2
 80029e2:	60e3      	str	r3, [r4, #12]
    tickstart = HAL_GetTick();
 80029e4:	f7fe fc66 	bl	80012b4 <HAL_GetTick>
 80029e8:	9000      	str	r0, [sp, #0]
  HAL_StatusTypeDef status = HAL_OK;
 80029ea:	0030      	movs	r0, r6
      if ((HAL_GetTick()  - tickstart) > RTC_TIMEOUT_VALUE)
 80029ec:	00bf      	lsls	r7, r7, #2
    while ((READ_BIT(RTC->ICSR, RTC_ICSR_INITF) == 0U) && (status != HAL_TIMEOUT))
 80029ee:	68e3      	ldr	r3, [r4, #12]
 80029f0:	001e      	movs	r6, r3
 80029f2:	402e      	ands	r6, r5
 80029f4:	422b      	tst	r3, r5
 80029f6:	d1ef      	bne.n	80029d8 <RTC_EnterInitMode+0x14>
 80029f8:	2803      	cmp	r0, #3
 80029fa:	d0ed      	beq.n	80029d8 <RTC_EnterInitMode+0x14>
      if ((HAL_GetTick()  - tickstart) > RTC_TIMEOUT_VALUE)
 80029fc:	f7fe fc5a 	bl	80012b4 <HAL_GetTick>
 8002a00:	0003      	movs	r3, r0
 8002a02:	9a00      	ldr	r2, [sp, #0]
 8002a04:	0030      	movs	r0, r6
 8002a06:	1a9b      	subs	r3, r3, r2
 8002a08:	42bb      	cmp	r3, r7
 8002a0a:	d9f0      	bls.n	80029ee <RTC_EnterInitMode+0x2a>
        if (READ_BIT(RTC->ICSR, RTC_ICSR_INITF) == 0U)
 8002a0c:	68e3      	ldr	r3, [r4, #12]
 8002a0e:	422b      	tst	r3, r5
 8002a10:	d1e1      	bne.n	80029d6 <RTC_EnterInitMode+0x12>
          hrtc->State = HAL_RTC_STATE_TIMEOUT;
 8002a12:	2003      	movs	r0, #3
 8002a14:	9b01      	ldr	r3, [sp, #4]
 8002a16:	3306      	adds	r3, #6
 8002a18:	77d8      	strb	r0, [r3, #31]
 8002a1a:	e7e8      	b.n	80029ee <RTC_EnterInitMode+0x2a>
 8002a1c:	40002800 	.word	0x40002800

08002a20 <RTC_ExitInitMode>:
HAL_StatusTypeDef RTC_ExitInitMode(RTC_HandleTypeDef *hrtc)
{
  HAL_StatusTypeDef status = HAL_OK;

  /* Exit Initialization mode */
  CLEAR_BIT(RTC->ICSR, RTC_ICSR_INIT);
 8002a20:	2280      	movs	r2, #128	@ 0x80
{
 8002a22:	b570      	push	{r4, r5, r6, lr}
  CLEAR_BIT(RTC->ICSR, RTC_ICSR_INIT);
 8002a24:	4c0f      	ldr	r4, [pc, #60]	@ (8002a64 <RTC_ExitInitMode+0x44>)
{
 8002a26:	0005      	movs	r5, r0
  CLEAR_BIT(RTC->ICSR, RTC_ICSR_INIT);
 8002a28:	68e3      	ldr	r3, [r4, #12]
 8002a2a:	4393      	bics	r3, r2
 8002a2c:	60e3      	str	r3, [r4, #12]

  /* If CR_BYPSHAD bit = 0, wait for synchro */
  if (READ_BIT(RTC->CR, RTC_CR_BYPSHAD) == 0U)
 8002a2e:	69a3      	ldr	r3, [r4, #24]
 8002a30:	3a60      	subs	r2, #96	@ 0x60
 8002a32:	4213      	tst	r3, r2
 8002a34:	d107      	bne.n	8002a46 <RTC_ExitInitMode+0x26>
  {
    if (HAL_RTC_WaitForSynchro(hrtc) != HAL_OK)
 8002a36:	f7ff ffa5 	bl	8002984 <HAL_RTC_WaitForSynchro>
 8002a3a:	2800      	cmp	r0, #0
 8002a3c:	d002      	beq.n	8002a44 <RTC_ExitInitMode+0x24>
    {
      hrtc->State = HAL_RTC_STATE_TIMEOUT;
 8002a3e:	2003      	movs	r0, #3
 8002a40:	3506      	adds	r5, #6
 8002a42:	77e8      	strb	r0, [r5, #31]
    /* Restore BYPSHAD bit */
    SET_BIT(RTC->CR, RTC_CR_BYPSHAD);
  }

  return status;
}
 8002a44:	bd70      	pop	{r4, r5, r6, pc}
    CLEAR_BIT(RTC->CR, RTC_CR_BYPSHAD);
 8002a46:	69a3      	ldr	r3, [r4, #24]
 8002a48:	4393      	bics	r3, r2
 8002a4a:	61a3      	str	r3, [r4, #24]
    if (HAL_RTC_WaitForSynchro(hrtc) != HAL_OK)
 8002a4c:	f7ff ff9a 	bl	8002984 <HAL_RTC_WaitForSynchro>
 8002a50:	2800      	cmp	r0, #0
 8002a52:	d002      	beq.n	8002a5a <RTC_ExitInitMode+0x3a>
      hrtc->State = HAL_RTC_STATE_TIMEOUT;
 8002a54:	2003      	movs	r0, #3
 8002a56:	3506      	adds	r5, #6
 8002a58:	77e8      	strb	r0, [r5, #31]
    SET_BIT(RTC->CR, RTC_CR_BYPSHAD);
 8002a5a:	2320      	movs	r3, #32
 8002a5c:	69a2      	ldr	r2, [r4, #24]
 8002a5e:	4313      	orrs	r3, r2
 8002a60:	61a3      	str	r3, [r4, #24]
  return status;
 8002a62:	e7ef      	b.n	8002a44 <RTC_ExitInitMode+0x24>
 8002a64:	40002800 	.word	0x40002800

08002a68 <HAL_RTC_Init>:
{
 8002a68:	b570      	push	{r4, r5, r6, lr}
 8002a6a:	0004      	movs	r4, r0
  HAL_StatusTypeDef status = HAL_ERROR;
 8002a6c:	2001      	movs	r0, #1
  if (hrtc != NULL)
 8002a6e:	2c00      	cmp	r4, #0
 8002a70:	d012      	beq.n	8002a98 <HAL_RTC_Init+0x30>
    if (hrtc->State == HAL_RTC_STATE_RESET)
 8002a72:	1da6      	adds	r6, r4, #6
 8002a74:	7ff3      	ldrb	r3, [r6, #31]
 8002a76:	b2da      	uxtb	r2, r3
 8002a78:	2b00      	cmp	r3, #0
 8002a7a:	d104      	bne.n	8002a86 <HAL_RTC_Init+0x1e>
      hrtc->Lock = HAL_UNLOCKED;
 8002a7c:	1d63      	adds	r3, r4, #5
      HAL_RTC_MspInit(hrtc);
 8002a7e:	0020      	movs	r0, r4
      hrtc->Lock = HAL_UNLOCKED;
 8002a80:	77da      	strb	r2, [r3, #31]
      HAL_RTC_MspInit(hrtc);
 8002a82:	f7fe f90f 	bl	8000ca4 <HAL_RTC_MspInit>
    hrtc->State = HAL_RTC_STATE_BUSY;
 8002a86:	2302      	movs	r3, #2
 8002a88:	77f3      	strb	r3, [r6, #31]
    if (__HAL_RTC_IS_CALENDAR_INITIALIZED(hrtc) == 0U)
 8002a8a:	6823      	ldr	r3, [r4, #0]
 8002a8c:	68da      	ldr	r2, [r3, #12]
 8002a8e:	06d2      	lsls	r2, r2, #27
 8002a90:	d503      	bpl.n	8002a9a <HAL_RTC_Init+0x32>
      hrtc->State = HAL_RTC_STATE_READY;
 8002a92:	2301      	movs	r3, #1
 8002a94:	2000      	movs	r0, #0
 8002a96:	77f3      	strb	r3, [r6, #31]
}
 8002a98:	bd70      	pop	{r4, r5, r6, pc}
      __HAL_RTC_WRITEPROTECTION_DISABLE(hrtc);
 8002a9a:	22ca      	movs	r2, #202	@ 0xca
 8002a9c:	625a      	str	r2, [r3, #36]	@ 0x24
 8002a9e:	3a77      	subs	r2, #119	@ 0x77
      status = RTC_EnterInitMode(hrtc);
 8002aa0:	0020      	movs	r0, r4
      __HAL_RTC_WRITEPROTECTION_DISABLE(hrtc);
 8002aa2:	625a      	str	r2, [r3, #36]	@ 0x24
      status = RTC_EnterInitMode(hrtc);
 8002aa4:	f7ff ff8e 	bl	80029c4 <RTC_EnterInitMode>
      if (status == HAL_OK)
 8002aa8:	2800      	cmp	r0, #0
 8002aaa:	d120      	bne.n	8002aee <HAL_RTC_Init+0x86>
        CLEAR_BIT(RTC->CR, (RTC_CR_FMT | RTC_CR_POL | RTC_CR_OSEL));
 8002aac:	4d13      	ldr	r5, [pc, #76]	@ (8002afc <HAL_RTC_Init+0x94>)
 8002aae:	4a14      	ldr	r2, [pc, #80]	@ (8002b00 <HAL_RTC_Init+0x98>)
 8002ab0:	69ab      	ldr	r3, [r5, #24]
        status = RTC_ExitInitMode(hrtc);
 8002ab2:	0020      	movs	r0, r4
        CLEAR_BIT(RTC->CR, (RTC_CR_FMT | RTC_CR_POL | RTC_CR_OSEL));
 8002ab4:	4013      	ands	r3, r2
 8002ab6:	61ab      	str	r3, [r5, #24]
        SET_BIT(RTC->CR, (hrtc->Init.HourFormat | hrtc->Init.OutPut | hrtc->Init.OutPutPolarity));
 8002ab8:	6863      	ldr	r3, [r4, #4]
 8002aba:	6921      	ldr	r1, [r4, #16]
 8002abc:	69aa      	ldr	r2, [r5, #24]
 8002abe:	430b      	orrs	r3, r1
 8002ac0:	4313      	orrs	r3, r2
 8002ac2:	69a2      	ldr	r2, [r4, #24]
 8002ac4:	4313      	orrs	r3, r2
 8002ac6:	61ab      	str	r3, [r5, #24]
        WRITE_REG(RTC->PRER, ((hrtc->Init.SynchPrediv) | (hrtc->Init.AsynchPrediv << RTC_PRER_PREDIV_A_Pos)));
 8002ac8:	68a3      	ldr	r3, [r4, #8]
 8002aca:	68e2      	ldr	r2, [r4, #12]
 8002acc:	041b      	lsls	r3, r3, #16
 8002ace:	4313      	orrs	r3, r2
 8002ad0:	612b      	str	r3, [r5, #16]
        status = RTC_ExitInitMode(hrtc);
 8002ad2:	f7ff ffa5 	bl	8002a20 <RTC_ExitInitMode>
      if (status == HAL_OK)
 8002ad6:	2800      	cmp	r0, #0
 8002ad8:	d109      	bne.n	8002aee <HAL_RTC_Init+0x86>
        MODIFY_REG(RTC->CR, \
 8002ada:	69aa      	ldr	r2, [r5, #24]
 8002adc:	6a23      	ldr	r3, [r4, #32]
 8002ade:	69e1      	ldr	r1, [r4, #28]
 8002ae0:	00d2      	lsls	r2, r2, #3
 8002ae2:	08d2      	lsrs	r2, r2, #3
 8002ae4:	430b      	orrs	r3, r1
 8002ae6:	4313      	orrs	r3, r2
 8002ae8:	6962      	ldr	r2, [r4, #20]
 8002aea:	4313      	orrs	r3, r2
 8002aec:	61ab      	str	r3, [r5, #24]
      __HAL_RTC_WRITEPROTECTION_ENABLE(hrtc);
 8002aee:	22ff      	movs	r2, #255	@ 0xff
 8002af0:	6823      	ldr	r3, [r4, #0]
 8002af2:	625a      	str	r2, [r3, #36]	@ 0x24
    if (status == HAL_OK)
 8002af4:	2800      	cmp	r0, #0
 8002af6:	d0cc      	beq.n	8002a92 <HAL_RTC_Init+0x2a>
 8002af8:	e7ce      	b.n	8002a98 <HAL_RTC_Init+0x30>
 8002afa:	46c0      	nop			@ (mov r8, r8)
 8002afc:	40002800 	.word	0x40002800
 8002b00:	ff8fffbf 	.word	0xff8fffbf

08002b04 <HAL_TIM_Base_Start_IT>:

  /* Check the parameters */
  assert_param(IS_TIM_INSTANCE(htim->Instance));

  /* Check the TIM state */
  if (htim->State != HAL_TIM_STATE_READY)
 8002b04:	0001      	movs	r1, r0
{
 8002b06:	0003      	movs	r3, r0
  {
    return HAL_ERROR;
 8002b08:	2001      	movs	r0, #1
{
 8002b0a:	b510      	push	{r4, lr}
  if (htim->State != HAL_TIM_STATE_READY)
 8002b0c:	313d      	adds	r1, #61	@ 0x3d
 8002b0e:	780c      	ldrb	r4, [r1, #0]
 8002b10:	b2e2      	uxtb	r2, r4
 8002b12:	4284      	cmp	r4, r0
 8002b14:	d118      	bne.n	8002b48 <HAL_TIM_Base_Start_IT+0x44>
  }

  /* Set the TIM state */
  htim->State = HAL_TIM_STATE_BUSY;
 8002b16:	1800      	adds	r0, r0, r0
 8002b18:	7008      	strb	r0, [r1, #0]

  /* Enable the TIM Update interrupt */
  __HAL_TIM_ENABLE_IT(htim, TIM_IT_UPDATE);
 8002b1a:	681b      	ldr	r3, [r3, #0]
 8002b1c:	68d9      	ldr	r1, [r3, #12]
 8002b1e:	4311      	orrs	r1, r2
 8002b20:	60d9      	str	r1, [r3, #12]

  /* Enable the Peripheral, except in trigger mode where enable is automatically done with trigger */
  if (IS_TIM_SLAVE_INSTANCE(htim->Instance))
 8002b22:	490b      	ldr	r1, [pc, #44]	@ (8002b50 <HAL_TIM_Base_Start_IT+0x4c>)
 8002b24:	428b      	cmp	r3, r1
 8002b26:	d002      	beq.n	8002b2e <HAL_TIM_Base_Start_IT+0x2a>
 8002b28:	490a      	ldr	r1, [pc, #40]	@ (8002b54 <HAL_TIM_Base_Start_IT+0x50>)
 8002b2a:	428b      	cmp	r3, r1
 8002b2c:	d10d      	bne.n	8002b4a <HAL_TIM_Base_Start_IT+0x46>
  {
    tmpsmcr = htim->Instance->SMCR & TIM_SMCR_SMS;
 8002b2e:	689a      	ldr	r2, [r3, #8]
 8002b30:	4909      	ldr	r1, [pc, #36]	@ (8002b58 <HAL_TIM_Base_Start_IT+0x54>)
 8002b32:	400a      	ands	r2, r1
    if (!IS_TIM_SLAVEMODE_TRIGGER_ENABLED(tmpsmcr))
 8002b34:	2a06      	cmp	r2, #6
 8002b36:	d006      	beq.n	8002b46 <HAL_TIM_Base_Start_IT+0x42>
 8002b38:	3907      	subs	r1, #7
 8002b3a:	428a      	cmp	r2, r1
 8002b3c:	d003      	beq.n	8002b46 <HAL_TIM_Base_Start_IT+0x42>
    {
      __HAL_TIM_ENABLE(htim);
 8002b3e:	2201      	movs	r2, #1
 8002b40:	6819      	ldr	r1, [r3, #0]
 8002b42:	430a      	orrs	r2, r1
 8002b44:	601a      	str	r2, [r3, #0]
  {
    __HAL_TIM_ENABLE(htim);
  }

  /* Return function status */
  return HAL_OK;
 8002b46:	2000      	movs	r0, #0
}
 8002b48:	bd10      	pop	{r4, pc}
    __HAL_TIM_ENABLE(htim);
 8002b4a:	6819      	ldr	r1, [r3, #0]
 8002b4c:	e7f9      	b.n	8002b42 <HAL_TIM_Base_Start_IT+0x3e>
 8002b4e:	46c0      	nop			@ (mov r8, r8)
 8002b50:	40012c00 	.word	0x40012c00
 8002b54:	40000400 	.word	0x40000400
 8002b58:	00010007 	.word	0x00010007

08002b5c <HAL_TIM_OC_DelayElapsedCallback>:
/**
  * @brief  Output Compare callback in non-blocking mode
  * @param  htim TIM OC handle
  * @retval None
  */
__weak void HAL_TIM_OC_DelayElapsedCallback(TIM_HandleTypeDef *htim)
 8002b5c:	4770      	bx	lr

08002b5e <HAL_TIM_IC_CaptureCallback>:
/**
  * @brief  Input Capture callback in non-blocking mode
  * @param  htim TIM IC handle
  * @retval None
  */
__weak void HAL_TIM_IC_CaptureCallback(TIM_HandleTypeDef *htim)
 8002b5e:	4770      	bx	lr

08002b60 <HAL_TIM_PWM_PulseFinishedCallback>:
/**
  * @brief  PWM Pulse finished callback in non-blocking mode
  * @param  htim TIM handle
  * @retval None
  */
__weak void HAL_TIM_PWM_PulseFinishedCallback(TIM_HandleTypeDef *htim)
 8002b60:	4770      	bx	lr

08002b62 <HAL_TIM_TriggerCallback>:
/**
  * @brief  Hall Trigger detection callback in non-blocking mode
  * @param  htim TIM handle
  * @retval None
  */
__weak void HAL_TIM_TriggerCallback(TIM_HandleTypeDef *htim)
 8002b62:	4770      	bx	lr

08002b64 <HAL_TIM_IRQHandler>:
  if ((itflag & (TIM_FLAG_CC1)) == (TIM_FLAG_CC1))
 8002b64:	2202      	movs	r2, #2
  uint32_t itsource = htim->Instance->DIER;
 8002b66:	6803      	ldr	r3, [r0, #0]
{
 8002b68:	b570      	push	{r4, r5, r6, lr}
  uint32_t itsource = htim->Instance->DIER;
 8002b6a:	68dd      	ldr	r5, [r3, #12]
  uint32_t itflag   = htim->Instance->SR;
 8002b6c:	691e      	ldr	r6, [r3, #16]
{
 8002b6e:	0004      	movs	r4, r0
  if ((itflag & (TIM_FLAG_CC1)) == (TIM_FLAG_CC1))
 8002b70:	4216      	tst	r6, r2
 8002b72:	d00d      	beq.n	8002b90 <HAL_TIM_IRQHandler+0x2c>
    if ((itsource & (TIM_IT_CC1)) == (TIM_IT_CC1))
 8002b74:	4215      	tst	r5, r2
 8002b76:	d00b      	beq.n	8002b90 <HAL_TIM_IRQHandler+0x2c>
        __HAL_TIM_CLEAR_FLAG(htim, TIM_FLAG_CC1);
 8002b78:	3a05      	subs	r2, #5
 8002b7a:	611a      	str	r2, [r3, #16]
        htim->Channel = HAL_TIM_ACTIVE_CHANNEL_1;
 8002b7c:	3204      	adds	r2, #4
 8002b7e:	7702      	strb	r2, [r0, #28]
        if ((htim->Instance->CCMR1 & TIM_CCMR1_CC1S) != 0x00U)
 8002b80:	699b      	ldr	r3, [r3, #24]
 8002b82:	079b      	lsls	r3, r3, #30
 8002b84:	d100      	bne.n	8002b88 <HAL_TIM_IRQHandler+0x24>
 8002b86:	e07c      	b.n	8002c82 <HAL_TIM_IRQHandler+0x11e>
          HAL_TIM_IC_CaptureCallback(htim);
 8002b88:	f7ff ffe9 	bl	8002b5e <HAL_TIM_IC_CaptureCallback>
        htim->Channel = HAL_TIM_ACTIVE_CHANNEL_CLEARED;
 8002b8c:	2300      	movs	r3, #0
 8002b8e:	7723      	strb	r3, [r4, #28]
  if ((itflag & (TIM_FLAG_CC2)) == (TIM_FLAG_CC2))
 8002b90:	2304      	movs	r3, #4
 8002b92:	421e      	tst	r6, r3
 8002b94:	d012      	beq.n	8002bbc <HAL_TIM_IRQHandler+0x58>
    if ((itsource & (TIM_IT_CC2)) == (TIM_IT_CC2))
 8002b96:	421d      	tst	r5, r3
 8002b98:	d010      	beq.n	8002bbc <HAL_TIM_IRQHandler+0x58>
      __HAL_TIM_CLEAR_FLAG(htim, TIM_FLAG_CC2);
 8002b9a:	2205      	movs	r2, #5
 8002b9c:	6823      	ldr	r3, [r4, #0]
 8002b9e:	4252      	negs	r2, r2
 8002ba0:	611a      	str	r2, [r3, #16]
      htim->Channel = HAL_TIM_ACTIVE_CHANNEL_2;
 8002ba2:	3207      	adds	r2, #7
 8002ba4:	7722      	strb	r2, [r4, #28]
      if ((htim->Instance->CCMR1 & TIM_CCMR1_CC2S) != 0x00U)
 8002ba6:	699a      	ldr	r2, [r3, #24]
 8002ba8:	23c0      	movs	r3, #192	@ 0xc0
 8002baa:	009b      	lsls	r3, r3, #2
        HAL_TIM_IC_CaptureCallback(htim);
 8002bac:	0020      	movs	r0, r4
      if ((htim->Instance->CCMR1 & TIM_CCMR1_CC2S) != 0x00U)
 8002bae:	421a      	tst	r2, r3
 8002bb0:	d100      	bne.n	8002bb4 <HAL_TIM_IRQHandler+0x50>
 8002bb2:	e06c      	b.n	8002c8e <HAL_TIM_IRQHandler+0x12a>
        HAL_TIM_IC_CaptureCallback(htim);
 8002bb4:	f7ff ffd3 	bl	8002b5e <HAL_TIM_IC_CaptureCallback>
      htim->Channel = HAL_TIM_ACTIVE_CHANNEL_CLEARED;
 8002bb8:	2300      	movs	r3, #0
 8002bba:	7723      	strb	r3, [r4, #28]
  if ((itflag & (TIM_FLAG_CC3)) == (TIM_FLAG_CC3))
 8002bbc:	2308      	movs	r3, #8
 8002bbe:	421e      	tst	r6, r3
 8002bc0:	d00f      	beq.n	8002be2 <HAL_TIM_IRQHandler+0x7e>
    if ((itsource & (TIM_IT_CC3)) == (TIM_IT_CC3))
 8002bc2:	421d      	tst	r5, r3
 8002bc4:	d00d      	beq.n	8002be2 <HAL_TIM_IRQHandler+0x7e>
      __HAL_TIM_CLEAR_FLAG(htim, TIM_FLAG_CC3);
 8002bc6:	2209      	movs	r2, #9
 8002bc8:	6823      	ldr	r3, [r4, #0]
 8002bca:	4252      	negs	r2, r2
 8002bcc:	611a      	str	r2, [r3, #16]
      htim->Channel = HAL_TIM_ACTIVE_CHANNEL_3;
 8002bce:	320d      	adds	r2, #13
 8002bd0:	7722      	strb	r2, [r4, #28]
      if ((htim->Instance->CCMR2 & TIM_CCMR2_CC3S) != 0x00U)
 8002bd2:	69db      	ldr	r3, [r3, #28]
        HAL_TIM_IC_CaptureCallback(htim);
 8002bd4:	0020      	movs	r0, r4
      if ((htim->Instance->CCMR2 & TIM_CCMR2_CC3S) != 0x00U)
 8002bd6:	079b      	lsls	r3, r3, #30
 8002bd8:	d05f      	beq.n	8002c9a <HAL_TIM_IRQHandler+0x136>
        HAL_TIM_IC_CaptureCallback(htim);
 8002bda:	f7ff ffc0 	bl	8002b5e <HAL_TIM_IC_CaptureCallback>
      htim->Channel = HAL_TIM_ACTIVE_CHANNEL_CLEARED;
 8002bde:	2300      	movs	r3, #0
 8002be0:	7723      	strb	r3, [r4, #28]
  if ((itflag & (TIM_FLAG_CC4)) == (TIM_FLAG_CC4))
 8002be2:	2310      	movs	r3, #16
 8002be4:	421e      	tst	r6, r3
 8002be6:	d011      	beq.n	8002c0c <HAL_TIM_IRQHandler+0xa8>
    if ((itsource & (TIM_IT_CC4)) == (TIM_IT_CC4))
 8002be8:	421d      	tst	r5, r3
 8002bea:	d00f      	beq.n	8002c0c <HAL_TIM_IRQHandler+0xa8>
      __HAL_TIM_CLEAR_FLAG(htim, TIM_FLAG_CC4);
 8002bec:	2211      	movs	r2, #17
 8002bee:	6823      	ldr	r3, [r4, #0]
 8002bf0:	4252      	negs	r2, r2
 8002bf2:	611a      	str	r2, [r3, #16]
      htim->Channel = HAL_TIM_ACTIVE_CHANNEL_4;
 8002bf4:	3219      	adds	r2, #25
 8002bf6:	7722      	strb	r2, [r4, #28]
      if ((htim->Instance->CCMR2 & TIM_CCMR2_CC4S) != 0x00U)
 8002bf8:	69da      	ldr	r2, [r3, #28]
 8002bfa:	23c0      	movs	r3, #192	@ 0xc0
 8002bfc:	009b      	lsls	r3, r3, #2
        HAL_TIM_IC_CaptureCallback(htim);
 8002bfe:	0020      	movs	r0, r4
      if ((htim->Instance->CCMR2 & TIM_CCMR2_CC4S) != 0x00U)
 8002c00:	421a      	tst	r2, r3
 8002c02:	d050      	beq.n	8002ca6 <HAL_TIM_IRQHandler+0x142>
        HAL_TIM_IC_CaptureCallback(htim);
 8002c04:	f7ff ffab 	bl	8002b5e <HAL_TIM_IC_CaptureCallback>
      htim->Channel = HAL_TIM_ACTIVE_CHANNEL_CLEARED;
 8002c08:	2300      	movs	r3, #0
 8002c0a:	7723      	strb	r3, [r4, #28]
  if ((itflag & (TIM_FLAG_UPDATE)) == (TIM_FLAG_UPDATE))
 8002c0c:	2301      	movs	r3, #1
 8002c0e:	421e      	tst	r6, r3
 8002c10:	d008      	beq.n	8002c24 <HAL_TIM_IRQHandler+0xc0>
    if ((itsource & (TIM_IT_UPDATE)) == (TIM_IT_UPDATE))
 8002c12:	421d      	tst	r5, r3
 8002c14:	d006      	beq.n	8002c24 <HAL_TIM_IRQHandler+0xc0>
      __HAL_TIM_CLEAR_FLAG(htim, TIM_FLAG_UPDATE);
 8002c16:	2202      	movs	r2, #2
 8002c18:	6823      	ldr	r3, [r4, #0]
 8002c1a:	4252      	negs	r2, r2
      HAL_TIM_PeriodElapsedCallback(htim);
 8002c1c:	0020      	movs	r0, r4
      __HAL_TIM_CLEAR_FLAG(htim, TIM_FLAG_UPDATE);
 8002c1e:	611a      	str	r2, [r3, #16]
      HAL_TIM_PeriodElapsedCallback(htim);
 8002c20:	f7fd fcb4 	bl	800058c <HAL_TIM_PeriodElapsedCallback>
  if (((itflag & (TIM_FLAG_BREAK)) == (TIM_FLAG_BREAK)) || \
 8002c24:	2382      	movs	r3, #130	@ 0x82
 8002c26:	019b      	lsls	r3, r3, #6
 8002c28:	421e      	tst	r6, r3
 8002c2a:	d007      	beq.n	8002c3c <HAL_TIM_IRQHandler+0xd8>
    if ((itsource & (TIM_IT_BREAK)) == (TIM_IT_BREAK))
 8002c2c:	062b      	lsls	r3, r5, #24
 8002c2e:	d505      	bpl.n	8002c3c <HAL_TIM_IRQHandler+0xd8>
      __HAL_TIM_CLEAR_FLAG(htim, TIM_FLAG_BREAK | TIM_FLAG_SYSTEM_BREAK);
 8002c30:	6823      	ldr	r3, [r4, #0]
 8002c32:	4a20      	ldr	r2, [pc, #128]	@ (8002cb4 <HAL_TIM_IRQHandler+0x150>)
      HAL_TIMEx_BreakCallback(htim);
 8002c34:	0020      	movs	r0, r4
      __HAL_TIM_CLEAR_FLAG(htim, TIM_FLAG_BREAK | TIM_FLAG_SYSTEM_BREAK);
 8002c36:	611a      	str	r2, [r3, #16]
      HAL_TIMEx_BreakCallback(htim);
 8002c38:	f000 fa11 	bl	800305e <HAL_TIMEx_BreakCallback>
  if ((itflag & (TIM_FLAG_BREAK2)) == (TIM_FLAG_BREAK2))
 8002c3c:	05f3      	lsls	r3, r6, #23
 8002c3e:	d507      	bpl.n	8002c50 <HAL_TIM_IRQHandler+0xec>
    if ((itsource & (TIM_IT_BREAK)) == (TIM_IT_BREAK))
 8002c40:	062b      	lsls	r3, r5, #24
 8002c42:	d505      	bpl.n	8002c50 <HAL_TIM_IRQHandler+0xec>
      __HAL_TIM_CLEAR_FLAG(htim, TIM_FLAG_BREAK2);
 8002c44:	6823      	ldr	r3, [r4, #0]
 8002c46:	4a1c      	ldr	r2, [pc, #112]	@ (8002cb8 <HAL_TIM_IRQHandler+0x154>)
      HAL_TIMEx_Break2Callback(htim);
 8002c48:	0020      	movs	r0, r4
      __HAL_TIM_CLEAR_FLAG(htim, TIM_FLAG_BREAK2);
 8002c4a:	611a      	str	r2, [r3, #16]
      HAL_TIMEx_Break2Callback(htim);
 8002c4c:	f000 fa08 	bl	8003060 <HAL_TIMEx_Break2Callback>
  if ((itflag & (TIM_FLAG_TRIGGER)) == (TIM_FLAG_TRIGGER))
 8002c50:	2340      	movs	r3, #64	@ 0x40
 8002c52:	421e      	tst	r6, r3
 8002c54:	d008      	beq.n	8002c68 <HAL_TIM_IRQHandler+0x104>
    if ((itsource & (TIM_IT_TRIGGER)) == (TIM_IT_TRIGGER))
 8002c56:	421d      	tst	r5, r3
 8002c58:	d006      	beq.n	8002c68 <HAL_TIM_IRQHandler+0x104>
      __HAL_TIM_CLEAR_FLAG(htim, TIM_FLAG_TRIGGER);
 8002c5a:	2241      	movs	r2, #65	@ 0x41
 8002c5c:	6823      	ldr	r3, [r4, #0]
 8002c5e:	4252      	negs	r2, r2
      HAL_TIM_TriggerCallback(htim);
 8002c60:	0020      	movs	r0, r4
      __HAL_TIM_CLEAR_FLAG(htim, TIM_FLAG_TRIGGER);
 8002c62:	611a      	str	r2, [r3, #16]
      HAL_TIM_TriggerCallback(htim);
 8002c64:	f7ff ff7d 	bl	8002b62 <HAL_TIM_TriggerCallback>
  if ((itflag & (TIM_FLAG_COM)) == (TIM_FLAG_COM))
 8002c68:	2320      	movs	r3, #32
 8002c6a:	421e      	tst	r6, r3
 8002c6c:	d008      	beq.n	8002c80 <HAL_TIM_IRQHandler+0x11c>
    if ((itsource & (TIM_IT_COM)) == (TIM_IT_COM))
 8002c6e:	421d      	tst	r5, r3
 8002c70:	d006      	beq.n	8002c80 <HAL_TIM_IRQHandler+0x11c>
      __HAL_TIM_CLEAR_FLAG(htim, TIM_FLAG_COM);
 8002c72:	2221      	movs	r2, #33	@ 0x21
 8002c74:	6823      	ldr	r3, [r4, #0]
 8002c76:	4252      	negs	r2, r2
      HAL_TIMEx_CommutCallback(htim);
 8002c78:	0020      	movs	r0, r4
      __HAL_TIM_CLEAR_FLAG(htim, TIM_FLAG_COM);
 8002c7a:	611a      	str	r2, [r3, #16]
      HAL_TIMEx_CommutCallback(htim);
 8002c7c:	f000 f9ee 	bl	800305c <HAL_TIMEx_CommutCallback>
}
 8002c80:	bd70      	pop	{r4, r5, r6, pc}
          HAL_TIM_OC_DelayElapsedCallback(htim);
 8002c82:	f7ff ff6b 	bl	8002b5c <HAL_TIM_OC_DelayElapsedCallback>
          HAL_TIM_PWM_PulseFinishedCallback(htim);
 8002c86:	0020      	movs	r0, r4
 8002c88:	f7ff ff6a 	bl	8002b60 <HAL_TIM_PWM_PulseFinishedCallback>
 8002c8c:	e77e      	b.n	8002b8c <HAL_TIM_IRQHandler+0x28>
        HAL_TIM_OC_DelayElapsedCallback(htim);
 8002c8e:	f7ff ff65 	bl	8002b5c <HAL_TIM_OC_DelayElapsedCallback>
        HAL_TIM_PWM_PulseFinishedCallback(htim);
 8002c92:	0020      	movs	r0, r4
 8002c94:	f7ff ff64 	bl	8002b60 <HAL_TIM_PWM_PulseFinishedCallback>
 8002c98:	e78e      	b.n	8002bb8 <HAL_TIM_IRQHandler+0x54>
        HAL_TIM_OC_DelayElapsedCallback(htim);
 8002c9a:	f7ff ff5f 	bl	8002b5c <HAL_TIM_OC_DelayElapsedCallback>
        HAL_TIM_PWM_PulseFinishedCallback(htim);
 8002c9e:	0020      	movs	r0, r4
 8002ca0:	f7ff ff5e 	bl	8002b60 <HAL_TIM_PWM_PulseFinishedCallback>
 8002ca4:	e79b      	b.n	8002bde <HAL_TIM_IRQHandler+0x7a>
        HAL_TIM_OC_DelayElapsedCallback(htim);
 8002ca6:	f7ff ff59 	bl	8002b5c <HAL_TIM_OC_DelayElapsedCallback>
        HAL_TIM_PWM_PulseFinishedCallback(htim);
 8002caa:	0020      	movs	r0, r4
 8002cac:	f7ff ff58 	bl	8002b60 <HAL_TIM_PWM_PulseFinishedCallback>
 8002cb0:	e7aa      	b.n	8002c08 <HAL_TIM_IRQHandler+0xa4>
 8002cb2:	46c0      	nop			@ (mov r8, r8)
 8002cb4:	ffffdf7f 	.word	0xffffdf7f
 8002cb8:	fffffeff 	.word	0xfffffeff

08002cbc <TIM_Base_SetConfig>:
  * @param  TIMx TIM peripheral
  * @param  Structure TIM Base configuration structure
  * @retval None
  */
void TIM_Base_SetConfig(TIM_TypeDef *TIMx, const TIM_Base_InitTypeDef *Structure)
{
 8002cbc:	b510      	push	{r4, lr}
  uint32_t tmpcr1;
  tmpcr1 = TIMx->CR1;

  /* Set TIM Time Base Unit parameters ---------------------------------------*/
  if (IS_TIM_COUNTER_MODE_SELECT_INSTANCE(TIMx))
 8002cbe:	4c1a      	ldr	r4, [pc, #104]	@ (8002d28 <TIM_Base_SetConfig+0x6c>)
  tmpcr1 = TIMx->CR1;
 8002cc0:	6803      	ldr	r3, [r0, #0]
  if (IS_TIM_COUNTER_MODE_SELECT_INSTANCE(TIMx))
 8002cc2:	42a0      	cmp	r0, r4
 8002cc4:	d00a      	beq.n	8002cdc <TIM_Base_SetConfig+0x20>
 8002cc6:	4a19      	ldr	r2, [pc, #100]	@ (8002d2c <TIM_Base_SetConfig+0x70>)
 8002cc8:	4290      	cmp	r0, r2
 8002cca:	d007      	beq.n	8002cdc <TIM_Base_SetConfig+0x20>
    /* Select the Counter Mode */
    tmpcr1 &= ~(TIM_CR1_DIR | TIM_CR1_CMS);
    tmpcr1 |= Structure->CounterMode;
  }

  if (IS_TIM_CLOCK_DIVISION_INSTANCE(TIMx))
 8002ccc:	4a18      	ldr	r2, [pc, #96]	@ (8002d30 <TIM_Base_SetConfig+0x74>)
 8002cce:	4290      	cmp	r0, r2
 8002cd0:	d109      	bne.n	8002ce6 <TIM_Base_SetConfig+0x2a>
  {
    /* Set the clock division */
    tmpcr1 &= ~TIM_CR1_CKD;
 8002cd2:	4a18      	ldr	r2, [pc, #96]	@ (8002d34 <TIM_Base_SetConfig+0x78>)
 8002cd4:	401a      	ands	r2, r3
    tmpcr1 |= (uint32_t)Structure->ClockDivision;
 8002cd6:	68cb      	ldr	r3, [r1, #12]
 8002cd8:	4313      	orrs	r3, r2
 8002cda:	e00a      	b.n	8002cf2 <TIM_Base_SetConfig+0x36>
    tmpcr1 &= ~(TIM_CR1_DIR | TIM_CR1_CMS);
 8002cdc:	2270      	movs	r2, #112	@ 0x70
 8002cde:	4393      	bics	r3, r2
    tmpcr1 |= Structure->CounterMode;
 8002ce0:	684a      	ldr	r2, [r1, #4]
 8002ce2:	4313      	orrs	r3, r2
  if (IS_TIM_CLOCK_DIVISION_INSTANCE(TIMx))
 8002ce4:	e7f5      	b.n	8002cd2 <TIM_Base_SetConfig+0x16>
 8002ce6:	4a14      	ldr	r2, [pc, #80]	@ (8002d38 <TIM_Base_SetConfig+0x7c>)
 8002ce8:	4290      	cmp	r0, r2
 8002cea:	d0f2      	beq.n	8002cd2 <TIM_Base_SetConfig+0x16>
 8002cec:	4a13      	ldr	r2, [pc, #76]	@ (8002d3c <TIM_Base_SetConfig+0x80>)
 8002cee:	4290      	cmp	r0, r2
 8002cf0:	d0ef      	beq.n	8002cd2 <TIM_Base_SetConfig+0x16>
  }

  /* Set the auto-reload preload */
  MODIFY_REG(tmpcr1, TIM_CR1_ARPE, Structure->AutoReloadPreload);
 8002cf2:	2280      	movs	r2, #128	@ 0x80
 8002cf4:	4393      	bics	r3, r2
 8002cf6:	694a      	ldr	r2, [r1, #20]
 8002cf8:	4313      	orrs	r3, r2

  /* Set the Autoreload value */
  TIMx->ARR = (uint32_t)Structure->Period ;
 8002cfa:	688a      	ldr	r2, [r1, #8]
 8002cfc:	62c2      	str	r2, [r0, #44]	@ 0x2c

  /* Set the Prescaler value */
  TIMx->PSC = Structure->Prescaler;
 8002cfe:	680a      	ldr	r2, [r1, #0]
 8002d00:	6282      	str	r2, [r0, #40]	@ 0x28

  if (IS_TIM_REPETITION_COUNTER_INSTANCE(TIMx))
 8002d02:	42a0      	cmp	r0, r4
 8002d04:	d005      	beq.n	8002d12 <TIM_Base_SetConfig+0x56>
 8002d06:	4a0c      	ldr	r2, [pc, #48]	@ (8002d38 <TIM_Base_SetConfig+0x7c>)
 8002d08:	4290      	cmp	r0, r2
 8002d0a:	d002      	beq.n	8002d12 <TIM_Base_SetConfig+0x56>
 8002d0c:	4a0b      	ldr	r2, [pc, #44]	@ (8002d3c <TIM_Base_SetConfig+0x80>)
 8002d0e:	4290      	cmp	r0, r2
 8002d10:	d101      	bne.n	8002d16 <TIM_Base_SetConfig+0x5a>
  {
    /* Set the Repetition Counter value */
    TIMx->RCR = Structure->RepetitionCounter;
 8002d12:	690a      	ldr	r2, [r1, #16]
 8002d14:	6302      	str	r2, [r0, #48]	@ 0x30
  }

  /* Disable Update Event (UEV) with Update Generation (UG)
     by changing Update Request Source (URS) to avoid Update flag (UIF) */
  SET_BIT(TIMx->CR1, TIM_CR1_URS);
 8002d16:	2204      	movs	r2, #4
 8002d18:	6801      	ldr	r1, [r0, #0]
 8002d1a:	430a      	orrs	r2, r1
 8002d1c:	6002      	str	r2, [r0, #0]

  /* Generate an update event to reload the Prescaler
     and the repetition counter (only for advanced timer) value immediately */
  TIMx->EGR = TIM_EGR_UG;
 8002d1e:	2201      	movs	r2, #1
 8002d20:	6142      	str	r2, [r0, #20]

  TIMx->CR1 = tmpcr1;
 8002d22:	6003      	str	r3, [r0, #0]
}
 8002d24:	bd10      	pop	{r4, pc}
 8002d26:	46c0      	nop			@ (mov r8, r8)
 8002d28:	40012c00 	.word	0x40012c00
 8002d2c:	40000400 	.word	0x40000400
 8002d30:	40002000 	.word	0x40002000
 8002d34:	fffffcff 	.word	0xfffffcff
 8002d38:	40014400 	.word	0x40014400
 8002d3c:	40014800 	.word	0x40014800

08002d40 <HAL_TIM_Base_Init>:
{
 8002d40:	b570      	push	{r4, r5, r6, lr}
 8002d42:	0004      	movs	r4, r0
    return HAL_ERROR;
 8002d44:	2001      	movs	r0, #1
  if (htim == NULL)
 8002d46:	2c00      	cmp	r4, #0
 8002d48:	d023      	beq.n	8002d92 <HAL_TIM_Base_Init+0x52>
  if (htim->State == HAL_TIM_STATE_RESET)
 8002d4a:	0025      	movs	r5, r4
 8002d4c:	353d      	adds	r5, #61	@ 0x3d
 8002d4e:	782b      	ldrb	r3, [r5, #0]
 8002d50:	b2da      	uxtb	r2, r3
 8002d52:	2b00      	cmp	r3, #0
 8002d54:	d105      	bne.n	8002d62 <HAL_TIM_Base_Init+0x22>
    htim->Lock = HAL_UNLOCKED;
 8002d56:	0023      	movs	r3, r4
 8002d58:	333c      	adds	r3, #60	@ 0x3c
    HAL_TIM_Base_MspInit(htim);
 8002d5a:	0020      	movs	r0, r4
    htim->Lock = HAL_UNLOCKED;
 8002d5c:	701a      	strb	r2, [r3, #0]
    HAL_TIM_Base_MspInit(htim);
 8002d5e:	f7fd ffcf 	bl	8000d00 <HAL_TIM_Base_MspInit>
  htim->State = HAL_TIM_STATE_BUSY;
 8002d62:	2302      	movs	r3, #2
 8002d64:	702b      	strb	r3, [r5, #0]
  TIM_Base_SetConfig(htim->Instance, &htim->Init);
 8002d66:	6820      	ldr	r0, [r4, #0]
 8002d68:	1d21      	adds	r1, r4, #4
 8002d6a:	f7ff ffa7 	bl	8002cbc <TIM_Base_SetConfig>
  htim->DMABurstState = HAL_DMA_BURST_STATE_READY;
 8002d6e:	0022      	movs	r2, r4
 8002d70:	2301      	movs	r3, #1
  return HAL_OK;
 8002d72:	2000      	movs	r0, #0
  htim->DMABurstState = HAL_DMA_BURST_STATE_READY;
 8002d74:	3248      	adds	r2, #72	@ 0x48
 8002d76:	7013      	strb	r3, [r2, #0]
  TIM_CHANNEL_N_STATE_SET_ALL(htim, HAL_TIM_CHANNEL_STATE_READY);
 8002d78:	3447      	adds	r4, #71	@ 0x47
  TIM_CHANNEL_STATE_SET_ALL(htim, HAL_TIM_CHANNEL_STATE_READY);
 8002d7a:	3a0a      	subs	r2, #10
 8002d7c:	7013      	strb	r3, [r2, #0]
 8002d7e:	7053      	strb	r3, [r2, #1]
 8002d80:	7093      	strb	r3, [r2, #2]
 8002d82:	70d3      	strb	r3, [r2, #3]
 8002d84:	7113      	strb	r3, [r2, #4]
 8002d86:	7153      	strb	r3, [r2, #5]
  TIM_CHANNEL_N_STATE_SET_ALL(htim, HAL_TIM_CHANNEL_STATE_READY);
 8002d88:	7193      	strb	r3, [r2, #6]
 8002d8a:	71d3      	strb	r3, [r2, #7]
 8002d8c:	7213      	strb	r3, [r2, #8]
 8002d8e:	7023      	strb	r3, [r4, #0]
  htim->State = HAL_TIM_STATE_READY;
 8002d90:	702b      	strb	r3, [r5, #0]
}
 8002d92:	bd70      	pop	{r4, r5, r6, pc}

08002d94 <TIM_ETR_SetConfig>:
  *          This parameter must be a value between 0x00 and 0x0F
  * @retval None
  */
void TIM_ETR_SetConfig(TIM_TypeDef *TIMx, uint32_t TIM_ExtTRGPrescaler,
                       uint32_t TIM_ExtTRGPolarity, uint32_t ExtTRGFilter)
{
 8002d94:	b530      	push	{r4, r5, lr}
  uint32_t tmpsmcr;

  tmpsmcr = TIMx->SMCR;
 8002d96:	6884      	ldr	r4, [r0, #8]

  /* Reset the ETR Bits */
  tmpsmcr &= ~(TIM_SMCR_ETF | TIM_SMCR_ETPS | TIM_SMCR_ECE | TIM_SMCR_ETP);
 8002d98:	4d03      	ldr	r5, [pc, #12]	@ (8002da8 <TIM_ETR_SetConfig+0x14>)

  /* Set the Prescaler, the Filter value and the Polarity */
  tmpsmcr |= (uint32_t)(TIM_ExtTRGPrescaler | (TIM_ExtTRGPolarity | (ExtTRGFilter << 8U)));
 8002d9a:	430a      	orrs	r2, r1
 8002d9c:	021b      	lsls	r3, r3, #8
  tmpsmcr &= ~(TIM_SMCR_ETF | TIM_SMCR_ETPS | TIM_SMCR_ECE | TIM_SMCR_ETP);
 8002d9e:	402c      	ands	r4, r5
  tmpsmcr |= (uint32_t)(TIM_ExtTRGPrescaler | (TIM_ExtTRGPolarity | (ExtTRGFilter << 8U)));
 8002da0:	4313      	orrs	r3, r2
 8002da2:	4323      	orrs	r3, r4

  /* Write to TIMx SMCR */
  TIMx->SMCR = tmpsmcr;
 8002da4:	6083      	str	r3, [r0, #8]
}
 8002da6:	bd30      	pop	{r4, r5, pc}
 8002da8:	ffff00ff 	.word	0xffff00ff

08002dac <HAL_TIM_ConfigClockSource>:
{
 8002dac:	b5f8      	push	{r3, r4, r5, r6, r7, lr}
  __HAL_LOCK(htim);
 8002dae:	0005      	movs	r5, r0
 8002db0:	2202      	movs	r2, #2
 8002db2:	353c      	adds	r5, #60	@ 0x3c
 8002db4:	782c      	ldrb	r4, [r5, #0]
{
 8002db6:	0003      	movs	r3, r0
  __HAL_LOCK(htim);
 8002db8:	0010      	movs	r0, r2
 8002dba:	2c01      	cmp	r4, #1
 8002dbc:	d01b      	beq.n	8002df6 <HAL_TIM_ConfigClockSource+0x4a>
  htim->State = HAL_TIM_STATE_BUSY;
 8002dbe:	001e      	movs	r6, r3
  __HAL_LOCK(htim);
 8002dc0:	3801      	subs	r0, #1
  htim->State = HAL_TIM_STATE_BUSY;
 8002dc2:	363d      	adds	r6, #61	@ 0x3d
  __HAL_LOCK(htim);
 8002dc4:	7028      	strb	r0, [r5, #0]
  htim->State = HAL_TIM_STATE_BUSY;
 8002dc6:	7032      	strb	r2, [r6, #0]
  tmpsmcr = htim->Instance->SMCR;
 8002dc8:	681c      	ldr	r4, [r3, #0]
  tmpsmcr &= ~(TIM_SMCR_ETF | TIM_SMCR_ETPS | TIM_SMCR_ECE | TIM_SMCR_ETP);
 8002dca:	4a41      	ldr	r2, [pc, #260]	@ (8002ed0 <HAL_TIM_ConfigClockSource+0x124>)
  tmpsmcr = htim->Instance->SMCR;
 8002dcc:	68a3      	ldr	r3, [r4, #8]
  tmpsmcr &= ~(TIM_SMCR_ETF | TIM_SMCR_ETPS | TIM_SMCR_ECE | TIM_SMCR_ETP);
 8002dce:	4013      	ands	r3, r2
  htim->Instance->SMCR = tmpsmcr;
 8002dd0:	60a3      	str	r3, [r4, #8]
  switch (sClockSourceConfig->ClockSource)
 8002dd2:	680b      	ldr	r3, [r1, #0]
 8002dd4:	2b60      	cmp	r3, #96	@ 0x60
 8002dd6:	d04e      	beq.n	8002e76 <HAL_TIM_ConfigClockSource+0xca>
 8002dd8:	d82d      	bhi.n	8002e36 <HAL_TIM_ConfigClockSource+0x8a>
 8002dda:	2b40      	cmp	r3, #64	@ 0x40
 8002ddc:	d062      	beq.n	8002ea4 <HAL_TIM_ConfigClockSource+0xf8>
 8002dde:	d813      	bhi.n	8002e08 <HAL_TIM_ConfigClockSource+0x5c>
 8002de0:	2b20      	cmp	r3, #32
 8002de2:	d00b      	beq.n	8002dfc <HAL_TIM_ConfigClockSource+0x50>
 8002de4:	d808      	bhi.n	8002df8 <HAL_TIM_ConfigClockSource+0x4c>
 8002de6:	2210      	movs	r2, #16
 8002de8:	0019      	movs	r1, r3
 8002dea:	4391      	bics	r1, r2
 8002dec:	d006      	beq.n	8002dfc <HAL_TIM_ConfigClockSource+0x50>
  htim->State = HAL_TIM_STATE_READY;
 8002dee:	2301      	movs	r3, #1
 8002df0:	7033      	strb	r3, [r6, #0]
  __HAL_UNLOCK(htim);
 8002df2:	2300      	movs	r3, #0
 8002df4:	702b      	strb	r3, [r5, #0]
}
 8002df6:	bdf8      	pop	{r3, r4, r5, r6, r7, pc}
  switch (sClockSourceConfig->ClockSource)
 8002df8:	2b30      	cmp	r3, #48	@ 0x30
 8002dfa:	d1f8      	bne.n	8002dee <HAL_TIM_ConfigClockSource+0x42>
  tmpsmcr = TIMx->SMCR;
 8002dfc:	68a2      	ldr	r2, [r4, #8]
  tmpsmcr &= ~TIM_SMCR_TS;
 8002dfe:	4935      	ldr	r1, [pc, #212]	@ (8002ed4 <HAL_TIM_ConfigClockSource+0x128>)
 8002e00:	400a      	ands	r2, r1
  tmpsmcr |= (InputTriggerSource | TIM_SLAVEMODE_EXTERNAL1);
 8002e02:	4313      	orrs	r3, r2
 8002e04:	2207      	movs	r2, #7
 8002e06:	e028      	b.n	8002e5a <HAL_TIM_ConfigClockSource+0xae>
  switch (sClockSourceConfig->ClockSource)
 8002e08:	2b50      	cmp	r3, #80	@ 0x50
 8002e0a:	d1f0      	bne.n	8002dee <HAL_TIM_ConfigClockSource+0x42>
                               sClockSourceConfig->ClockPolarity,
 8002e0c:	684a      	ldr	r2, [r1, #4]
                               sClockSourceConfig->ClockFilter);
 8002e0e:	68cb      	ldr	r3, [r1, #12]
  tmpccer = TIMx->CCER;
 8002e10:	6a21      	ldr	r1, [r4, #32]
  TIMx->CCER &= ~TIM_CCER_CC1E;
 8002e12:	6a27      	ldr	r7, [r4, #32]
  tmpccmr1 |= (TIM_ICFilter << 4U);
 8002e14:	011b      	lsls	r3, r3, #4
  TIMx->CCER &= ~TIM_CCER_CC1E;
 8002e16:	4387      	bics	r7, r0
 8002e18:	6227      	str	r7, [r4, #32]
  tmpccmr1 &= ~TIM_CCMR1_IC1F;
 8002e1a:	27f0      	movs	r7, #240	@ 0xf0
  tmpccmr1 = TIMx->CCMR1;
 8002e1c:	69a0      	ldr	r0, [r4, #24]
  tmpccmr1 &= ~TIM_CCMR1_IC1F;
 8002e1e:	43b8      	bics	r0, r7
  tmpccmr1 |= (TIM_ICFilter << 4U);
 8002e20:	4303      	orrs	r3, r0
  tmpccer &= ~(TIM_CCER_CC1P | TIM_CCER_CC1NP);
 8002e22:	200a      	movs	r0, #10
 8002e24:	4381      	bics	r1, r0
  tmpccer |= TIM_ICPolarity;
 8002e26:	430a      	orrs	r2, r1
  TIMx->CCMR1 = tmpccmr1;
 8002e28:	61a3      	str	r3, [r4, #24]
  TIMx->CCER = tmpccer;
 8002e2a:	6222      	str	r2, [r4, #32]
  tmpsmcr &= ~TIM_SMCR_TS;
 8002e2c:	4b29      	ldr	r3, [pc, #164]	@ (8002ed4 <HAL_TIM_ConfigClockSource+0x128>)
  tmpsmcr = TIMx->SMCR;
 8002e2e:	68a2      	ldr	r2, [r4, #8]
  tmpsmcr &= ~TIM_SMCR_TS;
 8002e30:	401a      	ands	r2, r3
  tmpsmcr |= (InputTriggerSource | TIM_SLAVEMODE_EXTERNAL1);
 8002e32:	2357      	movs	r3, #87	@ 0x57
 8002e34:	e011      	b.n	8002e5a <HAL_TIM_ConfigClockSource+0xae>
  switch (sClockSourceConfig->ClockSource)
 8002e36:	2280      	movs	r2, #128	@ 0x80
 8002e38:	0152      	lsls	r2, r2, #5
 8002e3a:	4293      	cmp	r3, r2
 8002e3c:	d00f      	beq.n	8002e5e <HAL_TIM_ConfigClockSource+0xb2>
 8002e3e:	2280      	movs	r2, #128	@ 0x80
 8002e40:	0192      	lsls	r2, r2, #6
 8002e42:	4293      	cmp	r3, r2
 8002e44:	d00d      	beq.n	8002e62 <HAL_TIM_ConfigClockSource+0xb6>
 8002e46:	2b70      	cmp	r3, #112	@ 0x70
 8002e48:	d1d1      	bne.n	8002dee <HAL_TIM_ConfigClockSource+0x42>
      TIM_ETR_SetConfig(htim->Instance,
 8002e4a:	68cb      	ldr	r3, [r1, #12]
 8002e4c:	684a      	ldr	r2, [r1, #4]
 8002e4e:	0020      	movs	r0, r4
 8002e50:	6889      	ldr	r1, [r1, #8]
 8002e52:	f7ff ff9f 	bl	8002d94 <TIM_ETR_SetConfig>
      tmpsmcr |= (TIM_SLAVEMODE_EXTERNAL1 | TIM_CLOCKSOURCE_ETRMODE1);
 8002e56:	2377      	movs	r3, #119	@ 0x77
      tmpsmcr = htim->Instance->SMCR;
 8002e58:	68a2      	ldr	r2, [r4, #8]
      tmpsmcr |= (TIM_SLAVEMODE_EXTERNAL1 | TIM_CLOCKSOURCE_ETRMODE1);
 8002e5a:	4313      	orrs	r3, r2
      htim->Instance->SMCR = tmpsmcr;
 8002e5c:	60a3      	str	r3, [r4, #8]
  HAL_StatusTypeDef status = HAL_OK;
 8002e5e:	2000      	movs	r0, #0
 8002e60:	e7c5      	b.n	8002dee <HAL_TIM_ConfigClockSource+0x42>
      TIM_ETR_SetConfig(htim->Instance,
 8002e62:	68cb      	ldr	r3, [r1, #12]
 8002e64:	684a      	ldr	r2, [r1, #4]
 8002e66:	0020      	movs	r0, r4
 8002e68:	6889      	ldr	r1, [r1, #8]
 8002e6a:	f7ff ff93 	bl	8002d94 <TIM_ETR_SetConfig>
      htim->Instance->SMCR |= TIM_SMCR_ECE;
 8002e6e:	2380      	movs	r3, #128	@ 0x80
 8002e70:	68a2      	ldr	r2, [r4, #8]
 8002e72:	01db      	lsls	r3, r3, #7
 8002e74:	e7f1      	b.n	8002e5a <HAL_TIM_ConfigClockSource+0xae>
  TIMx->CCER &= ~TIM_CCER_CC2E;
 8002e76:	2710      	movs	r7, #16
                               sClockSourceConfig->ClockPolarity,
 8002e78:	684b      	ldr	r3, [r1, #4]
                               sClockSourceConfig->ClockFilter);
 8002e7a:	68ca      	ldr	r2, [r1, #12]
  tmpccer = TIMx->CCER;
 8002e7c:	6a21      	ldr	r1, [r4, #32]
  TIMx->CCER &= ~TIM_CCER_CC2E;
 8002e7e:	6a20      	ldr	r0, [r4, #32]
  tmpccmr1 |= (TIM_ICFilter << 12U);
 8002e80:	0312      	lsls	r2, r2, #12
  TIMx->CCER &= ~TIM_CCER_CC2E;
 8002e82:	43b8      	bics	r0, r7
 8002e84:	6220      	str	r0, [r4, #32]
  tmpccmr1 = TIMx->CCMR1;
 8002e86:	69a0      	ldr	r0, [r4, #24]
  tmpccmr1 &= ~TIM_CCMR1_IC2F;
 8002e88:	4f13      	ldr	r7, [pc, #76]	@ (8002ed8 <HAL_TIM_ConfigClockSource+0x12c>)
  tmpccer |= (TIM_ICPolarity << 4U);
 8002e8a:	011b      	lsls	r3, r3, #4
  tmpccmr1 &= ~TIM_CCMR1_IC2F;
 8002e8c:	4038      	ands	r0, r7
  tmpccmr1 |= (TIM_ICFilter << 12U);
 8002e8e:	4302      	orrs	r2, r0
  tmpccer &= ~(TIM_CCER_CC2P | TIM_CCER_CC2NP);
 8002e90:	20a0      	movs	r0, #160	@ 0xa0
 8002e92:	4381      	bics	r1, r0
  tmpccer |= (TIM_ICPolarity << 4U);
 8002e94:	430b      	orrs	r3, r1
  TIMx->CCMR1 = tmpccmr1 ;
 8002e96:	61a2      	str	r2, [r4, #24]
  TIMx->CCER = tmpccer;
 8002e98:	6223      	str	r3, [r4, #32]
  tmpsmcr = TIMx->SMCR;
 8002e9a:	68a2      	ldr	r2, [r4, #8]
  tmpsmcr &= ~TIM_SMCR_TS;
 8002e9c:	4b0d      	ldr	r3, [pc, #52]	@ (8002ed4 <HAL_TIM_ConfigClockSource+0x128>)
 8002e9e:	401a      	ands	r2, r3
  tmpsmcr |= (InputTriggerSource | TIM_SLAVEMODE_EXTERNAL1);
 8002ea0:	2367      	movs	r3, #103	@ 0x67
 8002ea2:	e7da      	b.n	8002e5a <HAL_TIM_ConfigClockSource+0xae>
                               sClockSourceConfig->ClockPolarity,
 8002ea4:	684a      	ldr	r2, [r1, #4]
                               sClockSourceConfig->ClockFilter);
 8002ea6:	68cb      	ldr	r3, [r1, #12]
  tmpccer = TIMx->CCER;
 8002ea8:	6a21      	ldr	r1, [r4, #32]
  TIMx->CCER &= ~TIM_CCER_CC1E;
 8002eaa:	6a27      	ldr	r7, [r4, #32]
  tmpccmr1 |= (TIM_ICFilter << 4U);
 8002eac:	011b      	lsls	r3, r3, #4
  TIMx->CCER &= ~TIM_CCER_CC1E;
 8002eae:	4387      	bics	r7, r0
 8002eb0:	6227      	str	r7, [r4, #32]
  tmpccmr1 &= ~TIM_CCMR1_IC1F;
 8002eb2:	27f0      	movs	r7, #240	@ 0xf0
  tmpccmr1 = TIMx->CCMR1;
 8002eb4:	69a0      	ldr	r0, [r4, #24]
  tmpccmr1 &= ~TIM_CCMR1_IC1F;
 8002eb6:	43b8      	bics	r0, r7
  tmpccmr1 |= (TIM_ICFilter << 4U);
 8002eb8:	4303      	orrs	r3, r0
  tmpccer &= ~(TIM_CCER_CC1P | TIM_CCER_CC1NP);
 8002eba:	200a      	movs	r0, #10
 8002ebc:	4381      	bics	r1, r0
  tmpccer |= TIM_ICPolarity;
 8002ebe:	430a      	orrs	r2, r1
  TIMx->CCMR1 = tmpccmr1;
 8002ec0:	61a3      	str	r3, [r4, #24]
  TIMx->CCER = tmpccer;
 8002ec2:	6222      	str	r2, [r4, #32]
  tmpsmcr &= ~TIM_SMCR_TS;
 8002ec4:	4b03      	ldr	r3, [pc, #12]	@ (8002ed4 <HAL_TIM_ConfigClockSource+0x128>)
  tmpsmcr = TIMx->SMCR;
 8002ec6:	68a2      	ldr	r2, [r4, #8]
  tmpsmcr &= ~TIM_SMCR_TS;
 8002ec8:	401a      	ands	r2, r3
  tmpsmcr |= (InputTriggerSource | TIM_SLAVEMODE_EXTERNAL1);
 8002eca:	2347      	movs	r3, #71	@ 0x47
 8002ecc:	e7c5      	b.n	8002e5a <HAL_TIM_ConfigClockSource+0xae>
 8002ece:	46c0      	nop			@ (mov r8, r8)
 8002ed0:	ffce0088 	.word	0xffce0088
 8002ed4:	ffcfff8f 	.word	0xffcfff8f
 8002ed8:	ffff0fff 	.word	0xffff0fff

08002edc <TIM_SlaveTimer_SetConfig.constprop.0>:
static HAL_StatusTypeDef TIM_SlaveTimer_SetConfig(TIM_HandleTypeDef *htim,
 8002edc:	b570      	push	{r4, r5, r6, lr}
  tmpsmcr = htim->Instance->SMCR;
 8002ede:	6804      	ldr	r4, [r0, #0]
  tmpsmcr &= ~TIM_SMCR_TS;
 8002ee0:	4b30      	ldr	r3, [pc, #192]	@ (8002fa4 <TIM_SlaveTimer_SetConfig.constprop.0+0xc8>)
  tmpsmcr = htim->Instance->SMCR;
 8002ee2:	68a2      	ldr	r2, [r4, #8]
  tmpsmcr &= ~TIM_SMCR_SMS;
 8002ee4:	4830      	ldr	r0, [pc, #192]	@ (8002fa8 <TIM_SlaveTimer_SetConfig.constprop.0+0xcc>)
  tmpsmcr &= ~TIM_SMCR_TS;
 8002ee6:	401a      	ands	r2, r3
  tmpsmcr |= sSlaveConfig->InputTrigger;
 8002ee8:	684b      	ldr	r3, [r1, #4]
  tmpsmcr |= sSlaveConfig->SlaveMode;
 8002eea:	680d      	ldr	r5, [r1, #0]
  tmpsmcr |= sSlaveConfig->InputTrigger;
 8002eec:	431a      	orrs	r2, r3
  tmpsmcr &= ~TIM_SMCR_SMS;
 8002eee:	4002      	ands	r2, r0
  tmpsmcr |= sSlaveConfig->SlaveMode;
 8002ef0:	432a      	orrs	r2, r5
  htim->Instance->SMCR = tmpsmcr;
 8002ef2:	60a2      	str	r2, [r4, #8]
  switch (sSlaveConfig->InputTrigger)
 8002ef4:	2b50      	cmp	r3, #80	@ 0x50
 8002ef6:	d02f      	beq.n	8002f58 <TIM_SlaveTimer_SetConfig.constprop.0+0x7c>
 8002ef8:	d810      	bhi.n	8002f1c <TIM_SlaveTimer_SetConfig.constprop.0+0x40>
 8002efa:	2b40      	cmp	r3, #64	@ 0x40
 8002efc:	d01b      	beq.n	8002f36 <TIM_SlaveTimer_SetConfig.constprop.0+0x5a>
        return HAL_ERROR;
 8002efe:	2001      	movs	r0, #1
  switch (sSlaveConfig->InputTrigger)
 8002f00:	2b40      	cmp	r3, #64	@ 0x40
 8002f02:	d808      	bhi.n	8002f16 <TIM_SlaveTimer_SetConfig.constprop.0+0x3a>
 8002f04:	2b20      	cmp	r3, #32
 8002f06:	d014      	beq.n	8002f32 <TIM_SlaveTimer_SetConfig.constprop.0+0x56>
 8002f08:	d806      	bhi.n	8002f18 <TIM_SlaveTimer_SetConfig.constprop.0+0x3c>
 8002f0a:	2210      	movs	r2, #16
 8002f0c:	4393      	bics	r3, r2
 8002f0e:	0018      	movs	r0, r3
 8002f10:	1e43      	subs	r3, r0, #1
 8002f12:	4198      	sbcs	r0, r3
 8002f14:	b2c0      	uxtb	r0, r0
}
 8002f16:	bd70      	pop	{r4, r5, r6, pc}
  switch (sSlaveConfig->InputTrigger)
 8002f18:	3b30      	subs	r3, #48	@ 0x30
 8002f1a:	e7f8      	b.n	8002f0e <TIM_SlaveTimer_SetConfig.constprop.0+0x32>
 8002f1c:	2b60      	cmp	r3, #96	@ 0x60
 8002f1e:	d02d      	beq.n	8002f7c <TIM_SlaveTimer_SetConfig.constprop.0+0xa0>
        return HAL_ERROR;
 8002f20:	2001      	movs	r0, #1
  switch (sSlaveConfig->InputTrigger)
 8002f22:	2b70      	cmp	r3, #112	@ 0x70
 8002f24:	d1f7      	bne.n	8002f16 <TIM_SlaveTimer_SetConfig.constprop.0+0x3a>
      TIM_ETR_SetConfig(htim->Instance,
 8002f26:	690b      	ldr	r3, [r1, #16]
 8002f28:	688a      	ldr	r2, [r1, #8]
 8002f2a:	0020      	movs	r0, r4
 8002f2c:	68c9      	ldr	r1, [r1, #12]
 8002f2e:	f7ff ff31 	bl	8002d94 <TIM_ETR_SetConfig>
  HAL_StatusTypeDef status = HAL_OK;
 8002f32:	2000      	movs	r0, #0
 8002f34:	e7ef      	b.n	8002f16 <TIM_SlaveTimer_SetConfig.constprop.0+0x3a>
      if (sSlaveConfig->SlaveMode == TIM_SLAVEMODE_GATED)
 8002f36:	2201      	movs	r2, #1
        return HAL_ERROR;
 8002f38:	0010      	movs	r0, r2
      if (sSlaveConfig->SlaveMode == TIM_SLAVEMODE_GATED)
 8002f3a:	2d05      	cmp	r5, #5
 8002f3c:	d0eb      	beq.n	8002f16 <TIM_SlaveTimer_SetConfig.constprop.0+0x3a>
      tmpccer = htim->Instance->CCER;
 8002f3e:	6a20      	ldr	r0, [r4, #32]
      htim->Instance->CCER &= ~TIM_CCER_CC1E;
 8002f40:	6a23      	ldr	r3, [r4, #32]
 8002f42:	4393      	bics	r3, r2
 8002f44:	6223      	str	r3, [r4, #32]
      tmpccmr1 &= ~TIM_CCMR1_IC1F;
 8002f46:	23f0      	movs	r3, #240	@ 0xf0
      tmpccmr1 = htim->Instance->CCMR1;
 8002f48:	69a2      	ldr	r2, [r4, #24]
      tmpccmr1 &= ~TIM_CCMR1_IC1F;
 8002f4a:	439a      	bics	r2, r3
      tmpccmr1 |= ((sSlaveConfig->TriggerFilter) << 4U);
 8002f4c:	690b      	ldr	r3, [r1, #16]
 8002f4e:	011b      	lsls	r3, r3, #4
 8002f50:	4313      	orrs	r3, r2
      htim->Instance->CCMR1 = tmpccmr1;
 8002f52:	61a3      	str	r3, [r4, #24]
      htim->Instance->CCER = tmpccer;
 8002f54:	6220      	str	r0, [r4, #32]
      break;
 8002f56:	e7ec      	b.n	8002f32 <TIM_SlaveTimer_SetConfig.constprop.0+0x56>
  TIMx->CCER &= ~TIM_CCER_CC1E;
 8002f58:	2501      	movs	r5, #1
                               sSlaveConfig->TriggerPolarity,
 8002f5a:	688a      	ldr	r2, [r1, #8]
                               sSlaveConfig->TriggerFilter);
 8002f5c:	690b      	ldr	r3, [r1, #16]
  tmpccer = TIMx->CCER;
 8002f5e:	6a21      	ldr	r1, [r4, #32]
  TIMx->CCER &= ~TIM_CCER_CC1E;
 8002f60:	6a20      	ldr	r0, [r4, #32]
  tmpccmr1 |= (TIM_ICFilter << 4U);
 8002f62:	011b      	lsls	r3, r3, #4
  TIMx->CCER &= ~TIM_CCER_CC1E;
 8002f64:	43a8      	bics	r0, r5
 8002f66:	6220      	str	r0, [r4, #32]
  tmpccmr1 = TIMx->CCMR1;
 8002f68:	69a0      	ldr	r0, [r4, #24]
  tmpccmr1 &= ~TIM_CCMR1_IC1F;
 8002f6a:	35ef      	adds	r5, #239	@ 0xef
 8002f6c:	43a8      	bics	r0, r5
  tmpccmr1 |= (TIM_ICFilter << 4U);
 8002f6e:	4303      	orrs	r3, r0
  tmpccer &= ~(TIM_CCER_CC1P | TIM_CCER_CC1NP);
 8002f70:	200a      	movs	r0, #10
 8002f72:	4381      	bics	r1, r0
  tmpccer |= TIM_ICPolarity;
 8002f74:	430a      	orrs	r2, r1
  TIMx->CCMR1 = tmpccmr1;
 8002f76:	61a3      	str	r3, [r4, #24]
  TIMx->CCER = tmpccer;
 8002f78:	6222      	str	r2, [r4, #32]
}
 8002f7a:	e7da      	b.n	8002f32 <TIM_SlaveTimer_SetConfig.constprop.0+0x56>
  TIMx->CCER &= ~TIM_CCER_CC2E;
 8002f7c:	2510      	movs	r5, #16
                               sSlaveConfig->TriggerPolarity,
 8002f7e:	688b      	ldr	r3, [r1, #8]
                               sSlaveConfig->TriggerFilter);
 8002f80:	690a      	ldr	r2, [r1, #16]
  tmpccer = TIMx->CCER;
 8002f82:	6a21      	ldr	r1, [r4, #32]
  TIMx->CCER &= ~TIM_CCER_CC2E;
 8002f84:	6a20      	ldr	r0, [r4, #32]
  tmpccmr1 |= (TIM_ICFilter << 12U);
 8002f86:	0312      	lsls	r2, r2, #12
  TIMx->CCER &= ~TIM_CCER_CC2E;
 8002f88:	43a8      	bics	r0, r5
 8002f8a:	6220      	str	r0, [r4, #32]
  tmpccmr1 = TIMx->CCMR1;
 8002f8c:	69a0      	ldr	r0, [r4, #24]
  tmpccmr1 &= ~TIM_CCMR1_IC2F;
 8002f8e:	4d07      	ldr	r5, [pc, #28]	@ (8002fac <TIM_SlaveTimer_SetConfig.constprop.0+0xd0>)
  tmpccer |= (TIM_ICPolarity << 4U);
 8002f90:	011b      	lsls	r3, r3, #4
  tmpccmr1 &= ~TIM_CCMR1_IC2F;
 8002f92:	4028      	ands	r0, r5
  tmpccmr1 |= (TIM_ICFilter << 12U);
 8002f94:	4302      	orrs	r2, r0
  tmpccer &= ~(TIM_CCER_CC2P | TIM_CCER_CC2NP);
 8002f96:	20a0      	movs	r0, #160	@ 0xa0
 8002f98:	4381      	bics	r1, r0
  tmpccer |= (TIM_ICPolarity << 4U);
 8002f9a:	430b      	orrs	r3, r1
  TIMx->CCMR1 = tmpccmr1 ;
 8002f9c:	61a2      	str	r2, [r4, #24]
  TIMx->CCER = tmpccer;
 8002f9e:	6223      	str	r3, [r4, #32]
}
 8002fa0:	e7c7      	b.n	8002f32 <TIM_SlaveTimer_SetConfig.constprop.0+0x56>
 8002fa2:	46c0      	nop			@ (mov r8, r8)
 8002fa4:	ffcfff8f 	.word	0xffcfff8f
 8002fa8:	fffefff8 	.word	0xfffefff8
 8002fac:	ffff0fff 	.word	0xffff0fff

08002fb0 <HAL_TIM_SlaveConfigSynchro>:
{
 8002fb0:	b5f8      	push	{r3, r4, r5, r6, r7, lr}
  __HAL_LOCK(htim);
 8002fb2:	0005      	movs	r5, r0
 8002fb4:	2302      	movs	r3, #2
 8002fb6:	353c      	adds	r5, #60	@ 0x3c
 8002fb8:	782a      	ldrb	r2, [r5, #0]
{
 8002fba:	0004      	movs	r4, r0
  __HAL_LOCK(htim);
 8002fbc:	0018      	movs	r0, r3
 8002fbe:	2a01      	cmp	r2, #1
 8002fc0:	d00d      	beq.n	8002fde <HAL_TIM_SlaveConfigSynchro+0x2e>
  htim->State = HAL_TIM_STATE_BUSY;
 8002fc2:	0027      	movs	r7, r4
  __HAL_LOCK(htim);
 8002fc4:	2601      	movs	r6, #1
  htim->State = HAL_TIM_STATE_BUSY;
 8002fc6:	373d      	adds	r7, #61	@ 0x3d
  __HAL_LOCK(htim);
 8002fc8:	702e      	strb	r6, [r5, #0]
  if (TIM_SlaveTimer_SetConfig(htim, sSlaveConfig) != HAL_OK)
 8002fca:	0020      	movs	r0, r4
  htim->State = HAL_TIM_STATE_BUSY;
 8002fcc:	703b      	strb	r3, [r7, #0]
  if (TIM_SlaveTimer_SetConfig(htim, sSlaveConfig) != HAL_OK)
 8002fce:	f7ff ff85 	bl	8002edc <TIM_SlaveTimer_SetConfig.constprop.0>
 8002fd2:	2800      	cmp	r0, #0
 8002fd4:	d004      	beq.n	8002fe0 <HAL_TIM_SlaveConfigSynchro+0x30>
    __HAL_UNLOCK(htim);
 8002fd6:	2300      	movs	r3, #0
    return HAL_ERROR;
 8002fd8:	0030      	movs	r0, r6
    htim->State = HAL_TIM_STATE_READY;
 8002fda:	703e      	strb	r6, [r7, #0]
    __HAL_UNLOCK(htim);
 8002fdc:	702b      	strb	r3, [r5, #0]
}
 8002fde:	bdf8      	pop	{r3, r4, r5, r6, r7, pc}
  __HAL_TIM_DISABLE_IT(htim, TIM_IT_TRIGGER);
 8002fe0:	2140      	movs	r1, #64	@ 0x40
 8002fe2:	6823      	ldr	r3, [r4, #0]
 8002fe4:	68da      	ldr	r2, [r3, #12]
 8002fe6:	438a      	bics	r2, r1
 8002fe8:	60da      	str	r2, [r3, #12]
  __HAL_TIM_DISABLE_DMA(htim, TIM_DMA_TRIGGER);
 8002fea:	68da      	ldr	r2, [r3, #12]
 8002fec:	4902      	ldr	r1, [pc, #8]	@ (8002ff8 <HAL_TIM_SlaveConfigSynchro+0x48>)
 8002fee:	400a      	ands	r2, r1
 8002ff0:	60da      	str	r2, [r3, #12]
  htim->State = HAL_TIM_STATE_READY;
 8002ff2:	703e      	strb	r6, [r7, #0]
  __HAL_UNLOCK(htim);
 8002ff4:	7028      	strb	r0, [r5, #0]
  return HAL_OK;
 8002ff6:	e7f2      	b.n	8002fde <HAL_TIM_SlaveConfigSynchro+0x2e>
 8002ff8:	ffffbfff 	.word	0xffffbfff

08002ffc <HAL_TIMEx_MasterConfigSynchronization>:
  *         mode.
  * @retval HAL status
  */
HAL_StatusTypeDef HAL_TIMEx_MasterConfigSynchronization(TIM_HandleTypeDef *htim,
                                                        const TIM_MasterConfigTypeDef *sMasterConfig)
{
 8002ffc:	b5f0      	push	{r4, r5, r6, r7, lr}
  assert_param(IS_TIM_MASTER_INSTANCE(htim->Instance));
  assert_param(IS_TIM_TRGO_SOURCE(sMasterConfig->MasterOutputTrigger));
  assert_param(IS_TIM_MSM_STATE(sMasterConfig->MasterSlaveMode));

  /* Check input state */
  __HAL_LOCK(htim);
 8002ffe:	0004      	movs	r4, r0
 8003000:	2202      	movs	r2, #2
 8003002:	343c      	adds	r4, #60	@ 0x3c
 8003004:	7825      	ldrb	r5, [r4, #0]
{
 8003006:	0003      	movs	r3, r0
  __HAL_LOCK(htim);
 8003008:	0010      	movs	r0, r2
 800300a:	2d01      	cmp	r5, #1
 800300c:	d01f      	beq.n	800304e <HAL_TIMEx_MasterConfigSynchronization+0x52>

  /* Change the handler state */
  htim->State = HAL_TIM_STATE_BUSY;
 800300e:	001d      	movs	r5, r3
 8003010:	353d      	adds	r5, #61	@ 0x3d
 8003012:	702a      	strb	r2, [r5, #0]

  /* Get the TIMx CR2 register value */
  tmpcr2 = htim->Instance->CR2;
 8003014:	681a      	ldr	r2, [r3, #0]

  /* Get the TIMx SMCR register value */
  tmpsmcr = htim->Instance->SMCR;

  /* If the timer supports ADC synchronization through TRGO2, set the master mode selection 2 */
  if (IS_TIM_TRGO2_INSTANCE(htim->Instance))
 8003016:	4e0e      	ldr	r6, [pc, #56]	@ (8003050 <HAL_TIMEx_MasterConfigSynchronization+0x54>)
  tmpcr2 = htim->Instance->CR2;
 8003018:	6853      	ldr	r3, [r2, #4]
  tmpsmcr = htim->Instance->SMCR;
 800301a:	6890      	ldr	r0, [r2, #8]
  if (IS_TIM_TRGO2_INSTANCE(htim->Instance))
 800301c:	42b2      	cmp	r2, r6
 800301e:	d103      	bne.n	8003028 <HAL_TIMEx_MasterConfigSynchronization+0x2c>
  {
    /* Check the parameters */
    assert_param(IS_TIM_TRGO2_SOURCE(sMasterConfig->MasterOutputTrigger2));

    /* Clear the MMS2 bits */
    tmpcr2 &= ~TIM_CR2_MMS2;
 8003020:	4f0c      	ldr	r7, [pc, #48]	@ (8003054 <HAL_TIMEx_MasterConfigSynchronization+0x58>)
 8003022:	403b      	ands	r3, r7
    /* Select the TRGO2 source*/
    tmpcr2 |= sMasterConfig->MasterOutputTrigger2;
 8003024:	684f      	ldr	r7, [r1, #4]
 8003026:	433b      	orrs	r3, r7
  }

  /* Reset the MMS Bits */
  tmpcr2 &= ~TIM_CR2_MMS;
 8003028:	2770      	movs	r7, #112	@ 0x70
 800302a:	43bb      	bics	r3, r7
  /* Select the TRGO source */
  tmpcr2 |=  sMasterConfig->MasterOutputTrigger;
 800302c:	680f      	ldr	r7, [r1, #0]
 800302e:	433b      	orrs	r3, r7

  /* Update TIMx CR2 */
  htim->Instance->CR2 = tmpcr2;
 8003030:	6053      	str	r3, [r2, #4]

  if (IS_TIM_SLAVE_INSTANCE(htim->Instance))
 8003032:	42b2      	cmp	r2, r6
 8003034:	d002      	beq.n	800303c <HAL_TIMEx_MasterConfigSynchronization+0x40>
 8003036:	4b08      	ldr	r3, [pc, #32]	@ (8003058 <HAL_TIMEx_MasterConfigSynchronization+0x5c>)
 8003038:	429a      	cmp	r2, r3
 800303a:	d104      	bne.n	8003046 <HAL_TIMEx_MasterConfigSynchronization+0x4a>
  {
    /* Reset the MSM Bit */
    tmpsmcr &= ~TIM_SMCR_MSM;
 800303c:	2380      	movs	r3, #128	@ 0x80
 800303e:	4398      	bics	r0, r3
    /* Set master mode */
    tmpsmcr |= sMasterConfig->MasterSlaveMode;
 8003040:	688b      	ldr	r3, [r1, #8]
 8003042:	4318      	orrs	r0, r3

    /* Update TIMx SMCR */
    htim->Instance->SMCR = tmpsmcr;
 8003044:	6090      	str	r0, [r2, #8]
  }

  /* Change the htim state */
  htim->State = HAL_TIM_STATE_READY;
 8003046:	2301      	movs	r3, #1

  __HAL_UNLOCK(htim);
 8003048:	2000      	movs	r0, #0
  htim->State = HAL_TIM_STATE_READY;
 800304a:	702b      	strb	r3, [r5, #0]
  __HAL_UNLOCK(htim);
 800304c:	7020      	strb	r0, [r4, #0]

  return HAL_OK;
}
 800304e:	bdf0      	pop	{r4, r5, r6, r7, pc}
 8003050:	40012c00 	.word	0x40012c00
 8003054:	ff0fffff 	.word	0xff0fffff
 8003058:	40000400 	.word	0x40000400

0800305c <HAL_TIMEx_CommutCallback>:
/**
  * @brief  Commutation callback in non-blocking mode
  * @param  htim TIM handle
  * @retval None
  */
__weak void HAL_TIMEx_CommutCallback(TIM_HandleTypeDef *htim)
 800305c:	4770      	bx	lr

0800305e <HAL_TIMEx_BreakCallback>:
/**
  * @brief  Break detection callback in non-blocking mode
  * @param  htim TIM handle
  * @retval None
  */
__weak void HAL_TIMEx_BreakCallback(TIM_HandleTypeDef *htim)
 800305e:	4770      	bx	lr

08003060 <HAL_TIMEx_Break2Callback>:
/**
  * @brief  Break2 detection callback in non blocking mode
  * @param  htim: TIM handle
  * @retval None
  */
__weak void HAL_TIMEx_Break2Callback(TIM_HandleTypeDef *htim)
 8003060:	4770      	bx	lr
	...

08003064 <siprintf>:
 8003064:	b40e      	push	{r1, r2, r3}
 8003066:	b510      	push	{r4, lr}
 8003068:	2400      	movs	r4, #0
 800306a:	490c      	ldr	r1, [pc, #48]	@ (800309c <siprintf+0x38>)
 800306c:	b09d      	sub	sp, #116	@ 0x74
 800306e:	ab1f      	add	r3, sp, #124	@ 0x7c
 8003070:	9002      	str	r0, [sp, #8]
 8003072:	9006      	str	r0, [sp, #24]
 8003074:	9107      	str	r1, [sp, #28]
 8003076:	9104      	str	r1, [sp, #16]
 8003078:	4809      	ldr	r0, [pc, #36]	@ (80030a0 <siprintf+0x3c>)
 800307a:	490a      	ldr	r1, [pc, #40]	@ (80030a4 <siprintf+0x40>)
 800307c:	cb04      	ldmia	r3!, {r2}
 800307e:	9105      	str	r1, [sp, #20]
 8003080:	6800      	ldr	r0, [r0, #0]
 8003082:	a902      	add	r1, sp, #8
 8003084:	9301      	str	r3, [sp, #4]
 8003086:	941b      	str	r4, [sp, #108]	@ 0x6c
 8003088:	f000 f9b0 	bl	80033ec <_svfiprintf_r>
 800308c:	9b02      	ldr	r3, [sp, #8]
 800308e:	701c      	strb	r4, [r3, #0]
 8003090:	b01d      	add	sp, #116	@ 0x74
 8003092:	bc10      	pop	{r4}
 8003094:	bc08      	pop	{r3}
 8003096:	b003      	add	sp, #12
 8003098:	4718      	bx	r3
 800309a:	46c0      	nop			@ (mov r8, r8)
 800309c:	7fffffff 	.word	0x7fffffff
 80030a0:	20000010 	.word	0x20000010
 80030a4:	ffff0208 	.word	0xffff0208

080030a8 <memset>:
 80030a8:	0003      	movs	r3, r0
 80030aa:	1882      	adds	r2, r0, r2
 80030ac:	4293      	cmp	r3, r2
 80030ae:	d100      	bne.n	80030b2 <memset+0xa>
 80030b0:	4770      	bx	lr
 80030b2:	7019      	strb	r1, [r3, #0]
 80030b4:	3301      	adds	r3, #1
 80030b6:	e7f9      	b.n	80030ac <memset+0x4>

080030b8 <__errno>:
 80030b8:	4b01      	ldr	r3, [pc, #4]	@ (80030c0 <__errno+0x8>)
 80030ba:	6818      	ldr	r0, [r3, #0]
 80030bc:	4770      	bx	lr
 80030be:	46c0      	nop			@ (mov r8, r8)
 80030c0:	20000010 	.word	0x20000010

080030c4 <__libc_init_array>:
 80030c4:	b570      	push	{r4, r5, r6, lr}
 80030c6:	2600      	movs	r6, #0
 80030c8:	4c0c      	ldr	r4, [pc, #48]	@ (80030fc <__libc_init_array+0x38>)
 80030ca:	4d0d      	ldr	r5, [pc, #52]	@ (8003100 <__libc_init_array+0x3c>)
 80030cc:	1b64      	subs	r4, r4, r5
 80030ce:	10a4      	asrs	r4, r4, #2
 80030d0:	42a6      	cmp	r6, r4
 80030d2:	d109      	bne.n	80030e8 <__libc_init_array+0x24>
 80030d4:	2600      	movs	r6, #0
 80030d6:	f000 fc6b 	bl	80039b0 <_init>
 80030da:	4c0a      	ldr	r4, [pc, #40]	@ (8003104 <__libc_init_array+0x40>)
 80030dc:	4d0a      	ldr	r5, [pc, #40]	@ (8003108 <__libc_init_array+0x44>)
 80030de:	1b64      	subs	r4, r4, r5
 80030e0:	10a4      	asrs	r4, r4, #2
 80030e2:	42a6      	cmp	r6, r4
 80030e4:	d105      	bne.n	80030f2 <__libc_init_array+0x2e>
 80030e6:	bd70      	pop	{r4, r5, r6, pc}
 80030e8:	00b3      	lsls	r3, r6, #2
 80030ea:	58eb      	ldr	r3, [r5, r3]
 80030ec:	4798      	blx	r3
 80030ee:	3601      	adds	r6, #1
 80030f0:	e7ee      	b.n	80030d0 <__libc_init_array+0xc>
 80030f2:	00b3      	lsls	r3, r6, #2
 80030f4:	58eb      	ldr	r3, [r5, r3]
 80030f6:	4798      	blx	r3
 80030f8:	3601      	adds	r6, #1
 80030fa:	e7f2      	b.n	80030e2 <__libc_init_array+0x1e>
 80030fc:	080053cc 	.word	0x080053cc
 8003100:	080053cc 	.word	0x080053cc
 8003104:	080053d0 	.word	0x080053d0
 8003108:	080053cc 	.word	0x080053cc

0800310c <__retarget_lock_acquire_recursive>:
 800310c:	4770      	bx	lr

0800310e <__retarget_lock_release_recursive>:
 800310e:	4770      	bx	lr

08003110 <strcpy>:
 8003110:	0003      	movs	r3, r0
 8003112:	780a      	ldrb	r2, [r1, #0]
 8003114:	3101      	adds	r1, #1
 8003116:	701a      	strb	r2, [r3, #0]
 8003118:	3301      	adds	r3, #1
 800311a:	2a00      	cmp	r2, #0
 800311c:	d1f9      	bne.n	8003112 <strcpy+0x2>
 800311e:	4770      	bx	lr

08003120 <memcpy>:
 8003120:	2300      	movs	r3, #0
 8003122:	b510      	push	{r4, lr}
 8003124:	429a      	cmp	r2, r3
 8003126:	d100      	bne.n	800312a <memcpy+0xa>
 8003128:	bd10      	pop	{r4, pc}
 800312a:	5ccc      	ldrb	r4, [r1, r3]
 800312c:	54c4      	strb	r4, [r0, r3]
 800312e:	3301      	adds	r3, #1
 8003130:	e7f8      	b.n	8003124 <memcpy+0x4>
	...

08003134 <_free_r>:
 8003134:	b570      	push	{r4, r5, r6, lr}
 8003136:	0005      	movs	r5, r0
 8003138:	1e0c      	subs	r4, r1, #0
 800313a:	d010      	beq.n	800315e <_free_r+0x2a>
 800313c:	3c04      	subs	r4, #4
 800313e:	6823      	ldr	r3, [r4, #0]
 8003140:	2b00      	cmp	r3, #0
 8003142:	da00      	bge.n	8003146 <_free_r+0x12>
 8003144:	18e4      	adds	r4, r4, r3
 8003146:	0028      	movs	r0, r5
 8003148:	f000 f8e0 	bl	800330c <__malloc_lock>
 800314c:	4a1d      	ldr	r2, [pc, #116]	@ (80031c4 <_free_r+0x90>)
 800314e:	6813      	ldr	r3, [r2, #0]
 8003150:	2b00      	cmp	r3, #0
 8003152:	d105      	bne.n	8003160 <_free_r+0x2c>
 8003154:	6063      	str	r3, [r4, #4]
 8003156:	6014      	str	r4, [r2, #0]
 8003158:	0028      	movs	r0, r5
 800315a:	f000 f8df 	bl	800331c <__malloc_unlock>
 800315e:	bd70      	pop	{r4, r5, r6, pc}
 8003160:	42a3      	cmp	r3, r4
 8003162:	d908      	bls.n	8003176 <_free_r+0x42>
 8003164:	6820      	ldr	r0, [r4, #0]
 8003166:	1821      	adds	r1, r4, r0
 8003168:	428b      	cmp	r3, r1
 800316a:	d1f3      	bne.n	8003154 <_free_r+0x20>
 800316c:	6819      	ldr	r1, [r3, #0]
 800316e:	685b      	ldr	r3, [r3, #4]
 8003170:	1809      	adds	r1, r1, r0
 8003172:	6021      	str	r1, [r4, #0]
 8003174:	e7ee      	b.n	8003154 <_free_r+0x20>
 8003176:	001a      	movs	r2, r3
 8003178:	685b      	ldr	r3, [r3, #4]
 800317a:	2b00      	cmp	r3, #0
 800317c:	d001      	beq.n	8003182 <_free_r+0x4e>
 800317e:	42a3      	cmp	r3, r4
 8003180:	d9f9      	bls.n	8003176 <_free_r+0x42>
 8003182:	6811      	ldr	r1, [r2, #0]
 8003184:	1850      	adds	r0, r2, r1
 8003186:	42a0      	cmp	r0, r4
 8003188:	d10b      	bne.n	80031a2 <_free_r+0x6e>
 800318a:	6820      	ldr	r0, [r4, #0]
 800318c:	1809      	adds	r1, r1, r0
 800318e:	1850      	adds	r0, r2, r1
 8003190:	6011      	str	r1, [r2, #0]
 8003192:	4283      	cmp	r3, r0
 8003194:	d1e0      	bne.n	8003158 <_free_r+0x24>
 8003196:	6818      	ldr	r0, [r3, #0]
 8003198:	685b      	ldr	r3, [r3, #4]
 800319a:	1841      	adds	r1, r0, r1
 800319c:	6011      	str	r1, [r2, #0]
 800319e:	6053      	str	r3, [r2, #4]
 80031a0:	e7da      	b.n	8003158 <_free_r+0x24>
 80031a2:	42a0      	cmp	r0, r4
 80031a4:	d902      	bls.n	80031ac <_free_r+0x78>
 80031a6:	230c      	movs	r3, #12
 80031a8:	602b      	str	r3, [r5, #0]
 80031aa:	e7d5      	b.n	8003158 <_free_r+0x24>
 80031ac:	6820      	ldr	r0, [r4, #0]
 80031ae:	1821      	adds	r1, r4, r0
 80031b0:	428b      	cmp	r3, r1
 80031b2:	d103      	bne.n	80031bc <_free_r+0x88>
 80031b4:	6819      	ldr	r1, [r3, #0]
 80031b6:	685b      	ldr	r3, [r3, #4]
 80031b8:	1809      	adds	r1, r1, r0
 80031ba:	6021      	str	r1, [r4, #0]
 80031bc:	6063      	str	r3, [r4, #4]
 80031be:	6054      	str	r4, [r2, #4]
 80031c0:	e7ca      	b.n	8003158 <_free_r+0x24>
 80031c2:	46c0      	nop			@ (mov r8, r8)
 80031c4:	20000878 	.word	0x20000878

080031c8 <sbrk_aligned>:
 80031c8:	b570      	push	{r4, r5, r6, lr}
 80031ca:	4e0f      	ldr	r6, [pc, #60]	@ (8003208 <sbrk_aligned+0x40>)
 80031cc:	000d      	movs	r5, r1
 80031ce:	6831      	ldr	r1, [r6, #0]
 80031d0:	0004      	movs	r4, r0
 80031d2:	2900      	cmp	r1, #0
 80031d4:	d102      	bne.n	80031dc <sbrk_aligned+0x14>
 80031d6:	f000 fb95 	bl	8003904 <_sbrk_r>
 80031da:	6030      	str	r0, [r6, #0]
 80031dc:	0029      	movs	r1, r5
 80031de:	0020      	movs	r0, r4
 80031e0:	f000 fb90 	bl	8003904 <_sbrk_r>
 80031e4:	1c43      	adds	r3, r0, #1
 80031e6:	d103      	bne.n	80031f0 <sbrk_aligned+0x28>
 80031e8:	2501      	movs	r5, #1
 80031ea:	426d      	negs	r5, r5
 80031ec:	0028      	movs	r0, r5
 80031ee:	bd70      	pop	{r4, r5, r6, pc}
 80031f0:	2303      	movs	r3, #3
 80031f2:	1cc5      	adds	r5, r0, #3
 80031f4:	439d      	bics	r5, r3
 80031f6:	42a8      	cmp	r0, r5
 80031f8:	d0f8      	beq.n	80031ec <sbrk_aligned+0x24>
 80031fa:	1a29      	subs	r1, r5, r0
 80031fc:	0020      	movs	r0, r4
 80031fe:	f000 fb81 	bl	8003904 <_sbrk_r>
 8003202:	3001      	adds	r0, #1
 8003204:	d1f2      	bne.n	80031ec <sbrk_aligned+0x24>
 8003206:	e7ef      	b.n	80031e8 <sbrk_aligned+0x20>
 8003208:	20000874 	.word	0x20000874

0800320c <_malloc_r>:
 800320c:	b5f7      	push	{r0, r1, r2, r4, r5, r6, r7, lr}
 800320e:	2203      	movs	r2, #3
 8003210:	1ccb      	adds	r3, r1, #3
 8003212:	4393      	bics	r3, r2
 8003214:	3308      	adds	r3, #8
 8003216:	0005      	movs	r5, r0
 8003218:	001f      	movs	r7, r3
 800321a:	2b0c      	cmp	r3, #12
 800321c:	d234      	bcs.n	8003288 <_malloc_r+0x7c>
 800321e:	270c      	movs	r7, #12
 8003220:	42b9      	cmp	r1, r7
 8003222:	d833      	bhi.n	800328c <_malloc_r+0x80>
 8003224:	0028      	movs	r0, r5
 8003226:	f000 f871 	bl	800330c <__malloc_lock>
 800322a:	4e37      	ldr	r6, [pc, #220]	@ (8003308 <_malloc_r+0xfc>)
 800322c:	6833      	ldr	r3, [r6, #0]
 800322e:	001c      	movs	r4, r3
 8003230:	2c00      	cmp	r4, #0
 8003232:	d12f      	bne.n	8003294 <_malloc_r+0x88>
 8003234:	0039      	movs	r1, r7
 8003236:	0028      	movs	r0, r5
 8003238:	f7ff ffc6 	bl	80031c8 <sbrk_aligned>
 800323c:	0004      	movs	r4, r0
 800323e:	1c43      	adds	r3, r0, #1
 8003240:	d15f      	bne.n	8003302 <_malloc_r+0xf6>
 8003242:	6834      	ldr	r4, [r6, #0]
 8003244:	9400      	str	r4, [sp, #0]
 8003246:	9b00      	ldr	r3, [sp, #0]
 8003248:	2b00      	cmp	r3, #0
 800324a:	d14a      	bne.n	80032e2 <_malloc_r+0xd6>
 800324c:	2c00      	cmp	r4, #0
 800324e:	d052      	beq.n	80032f6 <_malloc_r+0xea>
 8003250:	6823      	ldr	r3, [r4, #0]
 8003252:	0028      	movs	r0, r5
 8003254:	18e3      	adds	r3, r4, r3
 8003256:	9900      	ldr	r1, [sp, #0]
 8003258:	9301      	str	r3, [sp, #4]
 800325a:	f000 fb53 	bl	8003904 <_sbrk_r>
 800325e:	9b01      	ldr	r3, [sp, #4]
 8003260:	4283      	cmp	r3, r0
 8003262:	d148      	bne.n	80032f6 <_malloc_r+0xea>
 8003264:	6823      	ldr	r3, [r4, #0]
 8003266:	0028      	movs	r0, r5
 8003268:	1aff      	subs	r7, r7, r3
 800326a:	0039      	movs	r1, r7
 800326c:	f7ff ffac 	bl	80031c8 <sbrk_aligned>
 8003270:	3001      	adds	r0, #1
 8003272:	d040      	beq.n	80032f6 <_malloc_r+0xea>
 8003274:	6823      	ldr	r3, [r4, #0]
 8003276:	19db      	adds	r3, r3, r7
 8003278:	6023      	str	r3, [r4, #0]
 800327a:	6833      	ldr	r3, [r6, #0]
 800327c:	685a      	ldr	r2, [r3, #4]
 800327e:	2a00      	cmp	r2, #0
 8003280:	d133      	bne.n	80032ea <_malloc_r+0xde>
 8003282:	9b00      	ldr	r3, [sp, #0]
 8003284:	6033      	str	r3, [r6, #0]
 8003286:	e019      	b.n	80032bc <_malloc_r+0xb0>
 8003288:	2b00      	cmp	r3, #0
 800328a:	dac9      	bge.n	8003220 <_malloc_r+0x14>
 800328c:	230c      	movs	r3, #12
 800328e:	602b      	str	r3, [r5, #0]
 8003290:	2000      	movs	r0, #0
 8003292:	bdfe      	pop	{r1, r2, r3, r4, r5, r6, r7, pc}
 8003294:	6821      	ldr	r1, [r4, #0]
 8003296:	1bc9      	subs	r1, r1, r7
 8003298:	d420      	bmi.n	80032dc <_malloc_r+0xd0>
 800329a:	290b      	cmp	r1, #11
 800329c:	d90a      	bls.n	80032b4 <_malloc_r+0xa8>
 800329e:	19e2      	adds	r2, r4, r7
 80032a0:	6027      	str	r7, [r4, #0]
 80032a2:	42a3      	cmp	r3, r4
 80032a4:	d104      	bne.n	80032b0 <_malloc_r+0xa4>
 80032a6:	6032      	str	r2, [r6, #0]
 80032a8:	6863      	ldr	r3, [r4, #4]
 80032aa:	6011      	str	r1, [r2, #0]
 80032ac:	6053      	str	r3, [r2, #4]
 80032ae:	e005      	b.n	80032bc <_malloc_r+0xb0>
 80032b0:	605a      	str	r2, [r3, #4]
 80032b2:	e7f9      	b.n	80032a8 <_malloc_r+0x9c>
 80032b4:	6862      	ldr	r2, [r4, #4]
 80032b6:	42a3      	cmp	r3, r4
 80032b8:	d10e      	bne.n	80032d8 <_malloc_r+0xcc>
 80032ba:	6032      	str	r2, [r6, #0]
 80032bc:	0028      	movs	r0, r5
 80032be:	f000 f82d 	bl	800331c <__malloc_unlock>
 80032c2:	0020      	movs	r0, r4
 80032c4:	2207      	movs	r2, #7
 80032c6:	300b      	adds	r0, #11
 80032c8:	1d23      	adds	r3, r4, #4
 80032ca:	4390      	bics	r0, r2
 80032cc:	1ac2      	subs	r2, r0, r3
 80032ce:	4298      	cmp	r0, r3
 80032d0:	d0df      	beq.n	8003292 <_malloc_r+0x86>
 80032d2:	1a1b      	subs	r3, r3, r0
 80032d4:	50a3      	str	r3, [r4, r2]
 80032d6:	e7dc      	b.n	8003292 <_malloc_r+0x86>
 80032d8:	605a      	str	r2, [r3, #4]
 80032da:	e7ef      	b.n	80032bc <_malloc_r+0xb0>
 80032dc:	0023      	movs	r3, r4
 80032de:	6864      	ldr	r4, [r4, #4]
 80032e0:	e7a6      	b.n	8003230 <_malloc_r+0x24>
 80032e2:	9c00      	ldr	r4, [sp, #0]
 80032e4:	6863      	ldr	r3, [r4, #4]
 80032e6:	9300      	str	r3, [sp, #0]
 80032e8:	e7ad      	b.n	8003246 <_malloc_r+0x3a>
 80032ea:	001a      	movs	r2, r3
 80032ec:	685b      	ldr	r3, [r3, #4]
 80032ee:	42a3      	cmp	r3, r4
 80032f0:	d1fb      	bne.n	80032ea <_malloc_r+0xde>
 80032f2:	2300      	movs	r3, #0
 80032f4:	e7da      	b.n	80032ac <_malloc_r+0xa0>
 80032f6:	230c      	movs	r3, #12
 80032f8:	0028      	movs	r0, r5
 80032fa:	602b      	str	r3, [r5, #0]
 80032fc:	f000 f80e 	bl	800331c <__malloc_unlock>
 8003300:	e7c6      	b.n	8003290 <_malloc_r+0x84>
 8003302:	6007      	str	r7, [r0, #0]
 8003304:	e7da      	b.n	80032bc <_malloc_r+0xb0>
 8003306:	46c0      	nop			@ (mov r8, r8)
 8003308:	20000878 	.word	0x20000878

0800330c <__malloc_lock>:
 800330c:	b510      	push	{r4, lr}
 800330e:	4802      	ldr	r0, [pc, #8]	@ (8003318 <__malloc_lock+0xc>)
 8003310:	f7ff fefc 	bl	800310c <__retarget_lock_acquire_recursive>
 8003314:	bd10      	pop	{r4, pc}
 8003316:	46c0      	nop			@ (mov r8, r8)
 8003318:	20000870 	.word	0x20000870

0800331c <__malloc_unlock>:
 800331c:	b510      	push	{r4, lr}
 800331e:	4802      	ldr	r0, [pc, #8]	@ (8003328 <__malloc_unlock+0xc>)
 8003320:	f7ff fef5 	bl	800310e <__retarget_lock_release_recursive>
 8003324:	bd10      	pop	{r4, pc}
 8003326:	46c0      	nop			@ (mov r8, r8)
 8003328:	20000870 	.word	0x20000870

0800332c <__ssputs_r>:
 800332c:	b5f0      	push	{r4, r5, r6, r7, lr}
 800332e:	688e      	ldr	r6, [r1, #8]
 8003330:	b085      	sub	sp, #20
 8003332:	001f      	movs	r7, r3
 8003334:	000c      	movs	r4, r1
 8003336:	680b      	ldr	r3, [r1, #0]
 8003338:	9002      	str	r0, [sp, #8]
 800333a:	9203      	str	r2, [sp, #12]
 800333c:	42be      	cmp	r6, r7
 800333e:	d830      	bhi.n	80033a2 <__ssputs_r+0x76>
 8003340:	210c      	movs	r1, #12
 8003342:	5e62      	ldrsh	r2, [r4, r1]
 8003344:	2190      	movs	r1, #144	@ 0x90
 8003346:	00c9      	lsls	r1, r1, #3
 8003348:	420a      	tst	r2, r1
 800334a:	d028      	beq.n	800339e <__ssputs_r+0x72>
 800334c:	2003      	movs	r0, #3
 800334e:	6921      	ldr	r1, [r4, #16]
 8003350:	1a5b      	subs	r3, r3, r1
 8003352:	9301      	str	r3, [sp, #4]
 8003354:	6963      	ldr	r3, [r4, #20]
 8003356:	4343      	muls	r3, r0
 8003358:	9801      	ldr	r0, [sp, #4]
 800335a:	0fdd      	lsrs	r5, r3, #31
 800335c:	18ed      	adds	r5, r5, r3
 800335e:	1c7b      	adds	r3, r7, #1
 8003360:	181b      	adds	r3, r3, r0
 8003362:	106d      	asrs	r5, r5, #1
 8003364:	42ab      	cmp	r3, r5
 8003366:	d900      	bls.n	800336a <__ssputs_r+0x3e>
 8003368:	001d      	movs	r5, r3
 800336a:	0552      	lsls	r2, r2, #21
 800336c:	d528      	bpl.n	80033c0 <__ssputs_r+0x94>
 800336e:	0029      	movs	r1, r5
 8003370:	9802      	ldr	r0, [sp, #8]
 8003372:	f7ff ff4b 	bl	800320c <_malloc_r>
 8003376:	1e06      	subs	r6, r0, #0
 8003378:	d02c      	beq.n	80033d4 <__ssputs_r+0xa8>
 800337a:	9a01      	ldr	r2, [sp, #4]
 800337c:	6921      	ldr	r1, [r4, #16]
 800337e:	f7ff fecf 	bl	8003120 <memcpy>
 8003382:	89a2      	ldrh	r2, [r4, #12]
 8003384:	4b18      	ldr	r3, [pc, #96]	@ (80033e8 <__ssputs_r+0xbc>)
 8003386:	401a      	ands	r2, r3
 8003388:	2380      	movs	r3, #128	@ 0x80
 800338a:	4313      	orrs	r3, r2
 800338c:	81a3      	strh	r3, [r4, #12]
 800338e:	9b01      	ldr	r3, [sp, #4]
 8003390:	6126      	str	r6, [r4, #16]
 8003392:	18f6      	adds	r6, r6, r3
 8003394:	6026      	str	r6, [r4, #0]
 8003396:	003e      	movs	r6, r7
 8003398:	6165      	str	r5, [r4, #20]
 800339a:	1aed      	subs	r5, r5, r3
 800339c:	60a5      	str	r5, [r4, #8]
 800339e:	42be      	cmp	r6, r7
 80033a0:	d900      	bls.n	80033a4 <__ssputs_r+0x78>
 80033a2:	003e      	movs	r6, r7
 80033a4:	0032      	movs	r2, r6
 80033a6:	9903      	ldr	r1, [sp, #12]
 80033a8:	6820      	ldr	r0, [r4, #0]
 80033aa:	f000 fa99 	bl	80038e0 <memmove>
 80033ae:	2000      	movs	r0, #0
 80033b0:	68a3      	ldr	r3, [r4, #8]
 80033b2:	1b9b      	subs	r3, r3, r6
 80033b4:	60a3      	str	r3, [r4, #8]
 80033b6:	6823      	ldr	r3, [r4, #0]
 80033b8:	199b      	adds	r3, r3, r6
 80033ba:	6023      	str	r3, [r4, #0]
 80033bc:	b005      	add	sp, #20
 80033be:	bdf0      	pop	{r4, r5, r6, r7, pc}
 80033c0:	002a      	movs	r2, r5
 80033c2:	9802      	ldr	r0, [sp, #8]
 80033c4:	f000 fabb 	bl	800393e <_realloc_r>
 80033c8:	1e06      	subs	r6, r0, #0
 80033ca:	d1e0      	bne.n	800338e <__ssputs_r+0x62>
 80033cc:	6921      	ldr	r1, [r4, #16]
 80033ce:	9802      	ldr	r0, [sp, #8]
 80033d0:	f7ff feb0 	bl	8003134 <_free_r>
 80033d4:	230c      	movs	r3, #12
 80033d6:	2001      	movs	r0, #1
 80033d8:	9a02      	ldr	r2, [sp, #8]
 80033da:	4240      	negs	r0, r0
 80033dc:	6013      	str	r3, [r2, #0]
 80033de:	89a2      	ldrh	r2, [r4, #12]
 80033e0:	3334      	adds	r3, #52	@ 0x34
 80033e2:	4313      	orrs	r3, r2
 80033e4:	81a3      	strh	r3, [r4, #12]
 80033e6:	e7e9      	b.n	80033bc <__ssputs_r+0x90>
 80033e8:	fffffb7f 	.word	0xfffffb7f

080033ec <_svfiprintf_r>:
 80033ec:	b5f0      	push	{r4, r5, r6, r7, lr}
 80033ee:	b0a1      	sub	sp, #132	@ 0x84
 80033f0:	9003      	str	r0, [sp, #12]
 80033f2:	001d      	movs	r5, r3
 80033f4:	898b      	ldrh	r3, [r1, #12]
 80033f6:	000f      	movs	r7, r1
 80033f8:	0016      	movs	r6, r2
 80033fa:	061b      	lsls	r3, r3, #24
 80033fc:	d511      	bpl.n	8003422 <_svfiprintf_r+0x36>
 80033fe:	690b      	ldr	r3, [r1, #16]
 8003400:	2b00      	cmp	r3, #0
 8003402:	d10e      	bne.n	8003422 <_svfiprintf_r+0x36>
 8003404:	2140      	movs	r1, #64	@ 0x40
 8003406:	f7ff ff01 	bl	800320c <_malloc_r>
 800340a:	6038      	str	r0, [r7, #0]
 800340c:	6138      	str	r0, [r7, #16]
 800340e:	2800      	cmp	r0, #0
 8003410:	d105      	bne.n	800341e <_svfiprintf_r+0x32>
 8003412:	230c      	movs	r3, #12
 8003414:	9a03      	ldr	r2, [sp, #12]
 8003416:	6013      	str	r3, [r2, #0]
 8003418:	2001      	movs	r0, #1
 800341a:	4240      	negs	r0, r0
 800341c:	e0cf      	b.n	80035be <_svfiprintf_r+0x1d2>
 800341e:	2340      	movs	r3, #64	@ 0x40
 8003420:	617b      	str	r3, [r7, #20]
 8003422:	2300      	movs	r3, #0
 8003424:	ac08      	add	r4, sp, #32
 8003426:	6163      	str	r3, [r4, #20]
 8003428:	3320      	adds	r3, #32
 800342a:	7663      	strb	r3, [r4, #25]
 800342c:	3310      	adds	r3, #16
 800342e:	76a3      	strb	r3, [r4, #26]
 8003430:	9507      	str	r5, [sp, #28]
 8003432:	0035      	movs	r5, r6
 8003434:	782b      	ldrb	r3, [r5, #0]
 8003436:	2b00      	cmp	r3, #0
 8003438:	d001      	beq.n	800343e <_svfiprintf_r+0x52>
 800343a:	2b25      	cmp	r3, #37	@ 0x25
 800343c:	d148      	bne.n	80034d0 <_svfiprintf_r+0xe4>
 800343e:	1bab      	subs	r3, r5, r6
 8003440:	9305      	str	r3, [sp, #20]
 8003442:	42b5      	cmp	r5, r6
 8003444:	d00b      	beq.n	800345e <_svfiprintf_r+0x72>
 8003446:	0032      	movs	r2, r6
 8003448:	0039      	movs	r1, r7
 800344a:	9803      	ldr	r0, [sp, #12]
 800344c:	f7ff ff6e 	bl	800332c <__ssputs_r>
 8003450:	3001      	adds	r0, #1
 8003452:	d100      	bne.n	8003456 <_svfiprintf_r+0x6a>
 8003454:	e0ae      	b.n	80035b4 <_svfiprintf_r+0x1c8>
 8003456:	6963      	ldr	r3, [r4, #20]
 8003458:	9a05      	ldr	r2, [sp, #20]
 800345a:	189b      	adds	r3, r3, r2
 800345c:	6163      	str	r3, [r4, #20]
 800345e:	782b      	ldrb	r3, [r5, #0]
 8003460:	2b00      	cmp	r3, #0
 8003462:	d100      	bne.n	8003466 <_svfiprintf_r+0x7a>
 8003464:	e0a6      	b.n	80035b4 <_svfiprintf_r+0x1c8>
 8003466:	2201      	movs	r2, #1
 8003468:	2300      	movs	r3, #0
 800346a:	4252      	negs	r2, r2
 800346c:	6062      	str	r2, [r4, #4]
 800346e:	a904      	add	r1, sp, #16
 8003470:	3254      	adds	r2, #84	@ 0x54
 8003472:	1852      	adds	r2, r2, r1
 8003474:	1c6e      	adds	r6, r5, #1
 8003476:	6023      	str	r3, [r4, #0]
 8003478:	60e3      	str	r3, [r4, #12]
 800347a:	60a3      	str	r3, [r4, #8]
 800347c:	7013      	strb	r3, [r2, #0]
 800347e:	65a3      	str	r3, [r4, #88]	@ 0x58
 8003480:	4b54      	ldr	r3, [pc, #336]	@ (80035d4 <_svfiprintf_r+0x1e8>)
 8003482:	2205      	movs	r2, #5
 8003484:	0018      	movs	r0, r3
 8003486:	7831      	ldrb	r1, [r6, #0]
 8003488:	9305      	str	r3, [sp, #20]
 800348a:	f000 fa4d 	bl	8003928 <memchr>
 800348e:	1c75      	adds	r5, r6, #1
 8003490:	2800      	cmp	r0, #0
 8003492:	d11f      	bne.n	80034d4 <_svfiprintf_r+0xe8>
 8003494:	6822      	ldr	r2, [r4, #0]
 8003496:	06d3      	lsls	r3, r2, #27
 8003498:	d504      	bpl.n	80034a4 <_svfiprintf_r+0xb8>
 800349a:	2353      	movs	r3, #83	@ 0x53
 800349c:	a904      	add	r1, sp, #16
 800349e:	185b      	adds	r3, r3, r1
 80034a0:	2120      	movs	r1, #32
 80034a2:	7019      	strb	r1, [r3, #0]
 80034a4:	0713      	lsls	r3, r2, #28
 80034a6:	d504      	bpl.n	80034b2 <_svfiprintf_r+0xc6>
 80034a8:	2353      	movs	r3, #83	@ 0x53
 80034aa:	a904      	add	r1, sp, #16
 80034ac:	185b      	adds	r3, r3, r1
 80034ae:	212b      	movs	r1, #43	@ 0x2b
 80034b0:	7019      	strb	r1, [r3, #0]
 80034b2:	7833      	ldrb	r3, [r6, #0]
 80034b4:	2b2a      	cmp	r3, #42	@ 0x2a
 80034b6:	d016      	beq.n	80034e6 <_svfiprintf_r+0xfa>
 80034b8:	0035      	movs	r5, r6
 80034ba:	2100      	movs	r1, #0
 80034bc:	200a      	movs	r0, #10
 80034be:	68e3      	ldr	r3, [r4, #12]
 80034c0:	782a      	ldrb	r2, [r5, #0]
 80034c2:	1c6e      	adds	r6, r5, #1
 80034c4:	3a30      	subs	r2, #48	@ 0x30
 80034c6:	2a09      	cmp	r2, #9
 80034c8:	d950      	bls.n	800356c <_svfiprintf_r+0x180>
 80034ca:	2900      	cmp	r1, #0
 80034cc:	d111      	bne.n	80034f2 <_svfiprintf_r+0x106>
 80034ce:	e017      	b.n	8003500 <_svfiprintf_r+0x114>
 80034d0:	3501      	adds	r5, #1
 80034d2:	e7af      	b.n	8003434 <_svfiprintf_r+0x48>
 80034d4:	9b05      	ldr	r3, [sp, #20]
 80034d6:	6822      	ldr	r2, [r4, #0]
 80034d8:	1ac0      	subs	r0, r0, r3
 80034da:	2301      	movs	r3, #1
 80034dc:	4083      	lsls	r3, r0
 80034de:	4313      	orrs	r3, r2
 80034e0:	002e      	movs	r6, r5
 80034e2:	6023      	str	r3, [r4, #0]
 80034e4:	e7cc      	b.n	8003480 <_svfiprintf_r+0x94>
 80034e6:	9b07      	ldr	r3, [sp, #28]
 80034e8:	1d19      	adds	r1, r3, #4
 80034ea:	681b      	ldr	r3, [r3, #0]
 80034ec:	9107      	str	r1, [sp, #28]
 80034ee:	2b00      	cmp	r3, #0
 80034f0:	db01      	blt.n	80034f6 <_svfiprintf_r+0x10a>
 80034f2:	930b      	str	r3, [sp, #44]	@ 0x2c
 80034f4:	e004      	b.n	8003500 <_svfiprintf_r+0x114>
 80034f6:	425b      	negs	r3, r3
 80034f8:	60e3      	str	r3, [r4, #12]
 80034fa:	2302      	movs	r3, #2
 80034fc:	4313      	orrs	r3, r2
 80034fe:	6023      	str	r3, [r4, #0]
 8003500:	782b      	ldrb	r3, [r5, #0]
 8003502:	2b2e      	cmp	r3, #46	@ 0x2e
 8003504:	d10c      	bne.n	8003520 <_svfiprintf_r+0x134>
 8003506:	786b      	ldrb	r3, [r5, #1]
 8003508:	2b2a      	cmp	r3, #42	@ 0x2a
 800350a:	d134      	bne.n	8003576 <_svfiprintf_r+0x18a>
 800350c:	9b07      	ldr	r3, [sp, #28]
 800350e:	3502      	adds	r5, #2
 8003510:	1d1a      	adds	r2, r3, #4
 8003512:	681b      	ldr	r3, [r3, #0]
 8003514:	9207      	str	r2, [sp, #28]
 8003516:	2b00      	cmp	r3, #0
 8003518:	da01      	bge.n	800351e <_svfiprintf_r+0x132>
 800351a:	2301      	movs	r3, #1
 800351c:	425b      	negs	r3, r3
 800351e:	9309      	str	r3, [sp, #36]	@ 0x24
 8003520:	4e2d      	ldr	r6, [pc, #180]	@ (80035d8 <_svfiprintf_r+0x1ec>)
 8003522:	2203      	movs	r2, #3
 8003524:	0030      	movs	r0, r6
 8003526:	7829      	ldrb	r1, [r5, #0]
 8003528:	f000 f9fe 	bl	8003928 <memchr>
 800352c:	2800      	cmp	r0, #0
 800352e:	d006      	beq.n	800353e <_svfiprintf_r+0x152>
 8003530:	2340      	movs	r3, #64	@ 0x40
 8003532:	1b80      	subs	r0, r0, r6
 8003534:	4083      	lsls	r3, r0
 8003536:	6822      	ldr	r2, [r4, #0]
 8003538:	3501      	adds	r5, #1
 800353a:	4313      	orrs	r3, r2
 800353c:	6023      	str	r3, [r4, #0]
 800353e:	7829      	ldrb	r1, [r5, #0]
 8003540:	2206      	movs	r2, #6
 8003542:	4826      	ldr	r0, [pc, #152]	@ (80035dc <_svfiprintf_r+0x1f0>)
 8003544:	1c6e      	adds	r6, r5, #1
 8003546:	7621      	strb	r1, [r4, #24]
 8003548:	f000 f9ee 	bl	8003928 <memchr>
 800354c:	2800      	cmp	r0, #0
 800354e:	d038      	beq.n	80035c2 <_svfiprintf_r+0x1d6>
 8003550:	4b23      	ldr	r3, [pc, #140]	@ (80035e0 <_svfiprintf_r+0x1f4>)
 8003552:	2b00      	cmp	r3, #0
 8003554:	d122      	bne.n	800359c <_svfiprintf_r+0x1b0>
 8003556:	2207      	movs	r2, #7
 8003558:	9b07      	ldr	r3, [sp, #28]
 800355a:	3307      	adds	r3, #7
 800355c:	4393      	bics	r3, r2
 800355e:	3308      	adds	r3, #8
 8003560:	9307      	str	r3, [sp, #28]
 8003562:	6963      	ldr	r3, [r4, #20]
 8003564:	9a04      	ldr	r2, [sp, #16]
 8003566:	189b      	adds	r3, r3, r2
 8003568:	6163      	str	r3, [r4, #20]
 800356a:	e762      	b.n	8003432 <_svfiprintf_r+0x46>
 800356c:	4343      	muls	r3, r0
 800356e:	0035      	movs	r5, r6
 8003570:	2101      	movs	r1, #1
 8003572:	189b      	adds	r3, r3, r2
 8003574:	e7a4      	b.n	80034c0 <_svfiprintf_r+0xd4>
 8003576:	2300      	movs	r3, #0
 8003578:	200a      	movs	r0, #10
 800357a:	0019      	movs	r1, r3
 800357c:	3501      	adds	r5, #1
 800357e:	6063      	str	r3, [r4, #4]
 8003580:	782a      	ldrb	r2, [r5, #0]
 8003582:	1c6e      	adds	r6, r5, #1
 8003584:	3a30      	subs	r2, #48	@ 0x30
 8003586:	2a09      	cmp	r2, #9
 8003588:	d903      	bls.n	8003592 <_svfiprintf_r+0x1a6>
 800358a:	2b00      	cmp	r3, #0
 800358c:	d0c8      	beq.n	8003520 <_svfiprintf_r+0x134>
 800358e:	9109      	str	r1, [sp, #36]	@ 0x24
 8003590:	e7c6      	b.n	8003520 <_svfiprintf_r+0x134>
 8003592:	4341      	muls	r1, r0
 8003594:	0035      	movs	r5, r6
 8003596:	2301      	movs	r3, #1
 8003598:	1889      	adds	r1, r1, r2
 800359a:	e7f1      	b.n	8003580 <_svfiprintf_r+0x194>
 800359c:	aa07      	add	r2, sp, #28
 800359e:	9200      	str	r2, [sp, #0]
 80035a0:	0021      	movs	r1, r4
 80035a2:	003a      	movs	r2, r7
 80035a4:	4b0f      	ldr	r3, [pc, #60]	@ (80035e4 <_svfiprintf_r+0x1f8>)
 80035a6:	9803      	ldr	r0, [sp, #12]
 80035a8:	e000      	b.n	80035ac <_svfiprintf_r+0x1c0>
 80035aa:	bf00      	nop
 80035ac:	9004      	str	r0, [sp, #16]
 80035ae:	9b04      	ldr	r3, [sp, #16]
 80035b0:	3301      	adds	r3, #1
 80035b2:	d1d6      	bne.n	8003562 <_svfiprintf_r+0x176>
 80035b4:	89bb      	ldrh	r3, [r7, #12]
 80035b6:	980d      	ldr	r0, [sp, #52]	@ 0x34
 80035b8:	065b      	lsls	r3, r3, #25
 80035ba:	d500      	bpl.n	80035be <_svfiprintf_r+0x1d2>
 80035bc:	e72c      	b.n	8003418 <_svfiprintf_r+0x2c>
 80035be:	b021      	add	sp, #132	@ 0x84
 80035c0:	bdf0      	pop	{r4, r5, r6, r7, pc}
 80035c2:	aa07      	add	r2, sp, #28
 80035c4:	9200      	str	r2, [sp, #0]
 80035c6:	0021      	movs	r1, r4
 80035c8:	003a      	movs	r2, r7
 80035ca:	4b06      	ldr	r3, [pc, #24]	@ (80035e4 <_svfiprintf_r+0x1f8>)
 80035cc:	9803      	ldr	r0, [sp, #12]
 80035ce:	f000 f87b 	bl	80036c8 <_printf_i>
 80035d2:	e7eb      	b.n	80035ac <_svfiprintf_r+0x1c0>
 80035d4:	08003a03 	.word	0x08003a03
 80035d8:	08003a09 	.word	0x08003a09
 80035dc:	08003a0d 	.word	0x08003a0d
 80035e0:	00000000 	.word	0x00000000
 80035e4:	0800332d 	.word	0x0800332d

080035e8 <_printf_common>:
 80035e8:	b5f7      	push	{r0, r1, r2, r4, r5, r6, r7, lr}
 80035ea:	0016      	movs	r6, r2
 80035ec:	9301      	str	r3, [sp, #4]
 80035ee:	688a      	ldr	r2, [r1, #8]
 80035f0:	690b      	ldr	r3, [r1, #16]
 80035f2:	000c      	movs	r4, r1
 80035f4:	9000      	str	r0, [sp, #0]
 80035f6:	4293      	cmp	r3, r2
 80035f8:	da00      	bge.n	80035fc <_printf_common+0x14>
 80035fa:	0013      	movs	r3, r2
 80035fc:	0022      	movs	r2, r4
 80035fe:	6033      	str	r3, [r6, #0]
 8003600:	3243      	adds	r2, #67	@ 0x43
 8003602:	7812      	ldrb	r2, [r2, #0]
 8003604:	2a00      	cmp	r2, #0
 8003606:	d001      	beq.n	800360c <_printf_common+0x24>
 8003608:	3301      	adds	r3, #1
 800360a:	6033      	str	r3, [r6, #0]
 800360c:	6823      	ldr	r3, [r4, #0]
 800360e:	069b      	lsls	r3, r3, #26
 8003610:	d502      	bpl.n	8003618 <_printf_common+0x30>
 8003612:	6833      	ldr	r3, [r6, #0]
 8003614:	3302      	adds	r3, #2
 8003616:	6033      	str	r3, [r6, #0]
 8003618:	6822      	ldr	r2, [r4, #0]
 800361a:	2306      	movs	r3, #6
 800361c:	0015      	movs	r5, r2
 800361e:	401d      	ands	r5, r3
 8003620:	421a      	tst	r2, r3
 8003622:	d027      	beq.n	8003674 <_printf_common+0x8c>
 8003624:	0023      	movs	r3, r4
 8003626:	3343      	adds	r3, #67	@ 0x43
 8003628:	781b      	ldrb	r3, [r3, #0]
 800362a:	1e5a      	subs	r2, r3, #1
 800362c:	4193      	sbcs	r3, r2
 800362e:	6822      	ldr	r2, [r4, #0]
 8003630:	0692      	lsls	r2, r2, #26
 8003632:	d430      	bmi.n	8003696 <_printf_common+0xae>
 8003634:	0022      	movs	r2, r4
 8003636:	9901      	ldr	r1, [sp, #4]
 8003638:	9800      	ldr	r0, [sp, #0]
 800363a:	9d08      	ldr	r5, [sp, #32]
 800363c:	3243      	adds	r2, #67	@ 0x43
 800363e:	47a8      	blx	r5
 8003640:	3001      	adds	r0, #1
 8003642:	d025      	beq.n	8003690 <_printf_common+0xa8>
 8003644:	2206      	movs	r2, #6
 8003646:	6823      	ldr	r3, [r4, #0]
 8003648:	2500      	movs	r5, #0
 800364a:	4013      	ands	r3, r2
 800364c:	2b04      	cmp	r3, #4
 800364e:	d105      	bne.n	800365c <_printf_common+0x74>
 8003650:	6833      	ldr	r3, [r6, #0]
 8003652:	68e5      	ldr	r5, [r4, #12]
 8003654:	1aed      	subs	r5, r5, r3
 8003656:	43eb      	mvns	r3, r5
 8003658:	17db      	asrs	r3, r3, #31
 800365a:	401d      	ands	r5, r3
 800365c:	68a3      	ldr	r3, [r4, #8]
 800365e:	6922      	ldr	r2, [r4, #16]
 8003660:	4293      	cmp	r3, r2
 8003662:	dd01      	ble.n	8003668 <_printf_common+0x80>
 8003664:	1a9b      	subs	r3, r3, r2
 8003666:	18ed      	adds	r5, r5, r3
 8003668:	2600      	movs	r6, #0
 800366a:	42b5      	cmp	r5, r6
 800366c:	d120      	bne.n	80036b0 <_printf_common+0xc8>
 800366e:	2000      	movs	r0, #0
 8003670:	e010      	b.n	8003694 <_printf_common+0xac>
 8003672:	3501      	adds	r5, #1
 8003674:	68e3      	ldr	r3, [r4, #12]
 8003676:	6832      	ldr	r2, [r6, #0]
 8003678:	1a9b      	subs	r3, r3, r2
 800367a:	42ab      	cmp	r3, r5
 800367c:	ddd2      	ble.n	8003624 <_printf_common+0x3c>
 800367e:	0022      	movs	r2, r4
 8003680:	2301      	movs	r3, #1
 8003682:	9901      	ldr	r1, [sp, #4]
 8003684:	9800      	ldr	r0, [sp, #0]
 8003686:	9f08      	ldr	r7, [sp, #32]
 8003688:	3219      	adds	r2, #25
 800368a:	47b8      	blx	r7
 800368c:	3001      	adds	r0, #1
 800368e:	d1f0      	bne.n	8003672 <_printf_common+0x8a>
 8003690:	2001      	movs	r0, #1
 8003692:	4240      	negs	r0, r0
 8003694:	bdfe      	pop	{r1, r2, r3, r4, r5, r6, r7, pc}
 8003696:	2030      	movs	r0, #48	@ 0x30
 8003698:	18e1      	adds	r1, r4, r3
 800369a:	3143      	adds	r1, #67	@ 0x43
 800369c:	7008      	strb	r0, [r1, #0]
 800369e:	0021      	movs	r1, r4
 80036a0:	1c5a      	adds	r2, r3, #1
 80036a2:	3145      	adds	r1, #69	@ 0x45
 80036a4:	7809      	ldrb	r1, [r1, #0]
 80036a6:	18a2      	adds	r2, r4, r2
 80036a8:	3243      	adds	r2, #67	@ 0x43
 80036aa:	3302      	adds	r3, #2
 80036ac:	7011      	strb	r1, [r2, #0]
 80036ae:	e7c1      	b.n	8003634 <_printf_common+0x4c>
 80036b0:	0022      	movs	r2, r4
 80036b2:	2301      	movs	r3, #1
 80036b4:	9901      	ldr	r1, [sp, #4]
 80036b6:	9800      	ldr	r0, [sp, #0]
 80036b8:	9f08      	ldr	r7, [sp, #32]
 80036ba:	321a      	adds	r2, #26
 80036bc:	47b8      	blx	r7
 80036be:	3001      	adds	r0, #1
 80036c0:	d0e6      	beq.n	8003690 <_printf_common+0xa8>
 80036c2:	3601      	adds	r6, #1
 80036c4:	e7d1      	b.n	800366a <_printf_common+0x82>
	...

080036c8 <_printf_i>:
 80036c8:	b5f0      	push	{r4, r5, r6, r7, lr}
 80036ca:	b08b      	sub	sp, #44	@ 0x2c
 80036cc:	9206      	str	r2, [sp, #24]
 80036ce:	000a      	movs	r2, r1
 80036d0:	3243      	adds	r2, #67	@ 0x43
 80036d2:	9307      	str	r3, [sp, #28]
 80036d4:	9005      	str	r0, [sp, #20]
 80036d6:	9203      	str	r2, [sp, #12]
 80036d8:	7e0a      	ldrb	r2, [r1, #24]
 80036da:	000c      	movs	r4, r1
 80036dc:	9b10      	ldr	r3, [sp, #64]	@ 0x40
 80036de:	2a78      	cmp	r2, #120	@ 0x78
 80036e0:	d809      	bhi.n	80036f6 <_printf_i+0x2e>
 80036e2:	2a62      	cmp	r2, #98	@ 0x62
 80036e4:	d80b      	bhi.n	80036fe <_printf_i+0x36>
 80036e6:	2a00      	cmp	r2, #0
 80036e8:	d100      	bne.n	80036ec <_printf_i+0x24>
 80036ea:	e0ba      	b.n	8003862 <_printf_i+0x19a>
 80036ec:	497a      	ldr	r1, [pc, #488]	@ (80038d8 <_printf_i+0x210>)
 80036ee:	9104      	str	r1, [sp, #16]
 80036f0:	2a58      	cmp	r2, #88	@ 0x58
 80036f2:	d100      	bne.n	80036f6 <_printf_i+0x2e>
 80036f4:	e08e      	b.n	8003814 <_printf_i+0x14c>
 80036f6:	0025      	movs	r5, r4
 80036f8:	3542      	adds	r5, #66	@ 0x42
 80036fa:	702a      	strb	r2, [r5, #0]
 80036fc:	e022      	b.n	8003744 <_printf_i+0x7c>
 80036fe:	0010      	movs	r0, r2
 8003700:	3863      	subs	r0, #99	@ 0x63
 8003702:	2815      	cmp	r0, #21
 8003704:	d8f7      	bhi.n	80036f6 <_printf_i+0x2e>
 8003706:	f7fc fd09 	bl	800011c <__gnu_thumb1_case_shi>
 800370a:	0016      	.short	0x0016
 800370c:	fff6001f 	.word	0xfff6001f
 8003710:	fff6fff6 	.word	0xfff6fff6
 8003714:	001ffff6 	.word	0x001ffff6
 8003718:	fff6fff6 	.word	0xfff6fff6
 800371c:	fff6fff6 	.word	0xfff6fff6
 8003720:	0036009f 	.word	0x0036009f
 8003724:	fff6007e 	.word	0xfff6007e
 8003728:	00b0fff6 	.word	0x00b0fff6
 800372c:	0036fff6 	.word	0x0036fff6
 8003730:	fff6fff6 	.word	0xfff6fff6
 8003734:	0082      	.short	0x0082
 8003736:	0025      	movs	r5, r4
 8003738:	681a      	ldr	r2, [r3, #0]
 800373a:	3542      	adds	r5, #66	@ 0x42
 800373c:	1d11      	adds	r1, r2, #4
 800373e:	6019      	str	r1, [r3, #0]
 8003740:	6813      	ldr	r3, [r2, #0]
 8003742:	702b      	strb	r3, [r5, #0]
 8003744:	2301      	movs	r3, #1
 8003746:	e09e      	b.n	8003886 <_printf_i+0x1be>
 8003748:	6818      	ldr	r0, [r3, #0]
 800374a:	6809      	ldr	r1, [r1, #0]
 800374c:	1d02      	adds	r2, r0, #4
 800374e:	060d      	lsls	r5, r1, #24
 8003750:	d50b      	bpl.n	800376a <_printf_i+0xa2>
 8003752:	6806      	ldr	r6, [r0, #0]
 8003754:	601a      	str	r2, [r3, #0]
 8003756:	2e00      	cmp	r6, #0
 8003758:	da03      	bge.n	8003762 <_printf_i+0x9a>
 800375a:	232d      	movs	r3, #45	@ 0x2d
 800375c:	9a03      	ldr	r2, [sp, #12]
 800375e:	4276      	negs	r6, r6
 8003760:	7013      	strb	r3, [r2, #0]
 8003762:	4b5d      	ldr	r3, [pc, #372]	@ (80038d8 <_printf_i+0x210>)
 8003764:	270a      	movs	r7, #10
 8003766:	9304      	str	r3, [sp, #16]
 8003768:	e018      	b.n	800379c <_printf_i+0xd4>
 800376a:	6806      	ldr	r6, [r0, #0]
 800376c:	601a      	str	r2, [r3, #0]
 800376e:	0649      	lsls	r1, r1, #25
 8003770:	d5f1      	bpl.n	8003756 <_printf_i+0x8e>
 8003772:	b236      	sxth	r6, r6
 8003774:	e7ef      	b.n	8003756 <_printf_i+0x8e>
 8003776:	6808      	ldr	r0, [r1, #0]
 8003778:	6819      	ldr	r1, [r3, #0]
 800377a:	c940      	ldmia	r1!, {r6}
 800377c:	0605      	lsls	r5, r0, #24
 800377e:	d402      	bmi.n	8003786 <_printf_i+0xbe>
 8003780:	0640      	lsls	r0, r0, #25
 8003782:	d500      	bpl.n	8003786 <_printf_i+0xbe>
 8003784:	b2b6      	uxth	r6, r6
 8003786:	6019      	str	r1, [r3, #0]
 8003788:	4b53      	ldr	r3, [pc, #332]	@ (80038d8 <_printf_i+0x210>)
 800378a:	270a      	movs	r7, #10
 800378c:	9304      	str	r3, [sp, #16]
 800378e:	2a6f      	cmp	r2, #111	@ 0x6f
 8003790:	d100      	bne.n	8003794 <_printf_i+0xcc>
 8003792:	3f02      	subs	r7, #2
 8003794:	0023      	movs	r3, r4
 8003796:	2200      	movs	r2, #0
 8003798:	3343      	adds	r3, #67	@ 0x43
 800379a:	701a      	strb	r2, [r3, #0]
 800379c:	6863      	ldr	r3, [r4, #4]
 800379e:	60a3      	str	r3, [r4, #8]
 80037a0:	2b00      	cmp	r3, #0
 80037a2:	db06      	blt.n	80037b2 <_printf_i+0xea>
 80037a4:	2104      	movs	r1, #4
 80037a6:	6822      	ldr	r2, [r4, #0]
 80037a8:	9d03      	ldr	r5, [sp, #12]
 80037aa:	438a      	bics	r2, r1
 80037ac:	6022      	str	r2, [r4, #0]
 80037ae:	4333      	orrs	r3, r6
 80037b0:	d00c      	beq.n	80037cc <_printf_i+0x104>
 80037b2:	9d03      	ldr	r5, [sp, #12]
 80037b4:	0030      	movs	r0, r6
 80037b6:	0039      	movs	r1, r7
 80037b8:	f7fc fd40 	bl	800023c <__aeabi_uidivmod>
 80037bc:	9b04      	ldr	r3, [sp, #16]
 80037be:	3d01      	subs	r5, #1
 80037c0:	5c5b      	ldrb	r3, [r3, r1]
 80037c2:	702b      	strb	r3, [r5, #0]
 80037c4:	0033      	movs	r3, r6
 80037c6:	0006      	movs	r6, r0
 80037c8:	429f      	cmp	r7, r3
 80037ca:	d9f3      	bls.n	80037b4 <_printf_i+0xec>
 80037cc:	2f08      	cmp	r7, #8
 80037ce:	d109      	bne.n	80037e4 <_printf_i+0x11c>
 80037d0:	6823      	ldr	r3, [r4, #0]
 80037d2:	07db      	lsls	r3, r3, #31
 80037d4:	d506      	bpl.n	80037e4 <_printf_i+0x11c>
 80037d6:	6862      	ldr	r2, [r4, #4]
 80037d8:	6923      	ldr	r3, [r4, #16]
 80037da:	429a      	cmp	r2, r3
 80037dc:	dc02      	bgt.n	80037e4 <_printf_i+0x11c>
 80037de:	2330      	movs	r3, #48	@ 0x30
 80037e0:	3d01      	subs	r5, #1
 80037e2:	702b      	strb	r3, [r5, #0]
 80037e4:	9b03      	ldr	r3, [sp, #12]
 80037e6:	1b5b      	subs	r3, r3, r5
 80037e8:	6123      	str	r3, [r4, #16]
 80037ea:	9b07      	ldr	r3, [sp, #28]
 80037ec:	0021      	movs	r1, r4
 80037ee:	9300      	str	r3, [sp, #0]
 80037f0:	9805      	ldr	r0, [sp, #20]
 80037f2:	9b06      	ldr	r3, [sp, #24]
 80037f4:	aa09      	add	r2, sp, #36	@ 0x24
 80037f6:	f7ff fef7 	bl	80035e8 <_printf_common>
 80037fa:	3001      	adds	r0, #1
 80037fc:	d148      	bne.n	8003890 <_printf_i+0x1c8>
 80037fe:	2001      	movs	r0, #1
 8003800:	4240      	negs	r0, r0
 8003802:	b00b      	add	sp, #44	@ 0x2c
 8003804:	bdf0      	pop	{r4, r5, r6, r7, pc}
 8003806:	2220      	movs	r2, #32
 8003808:	6809      	ldr	r1, [r1, #0]
 800380a:	430a      	orrs	r2, r1
 800380c:	6022      	str	r2, [r4, #0]
 800380e:	2278      	movs	r2, #120	@ 0x78
 8003810:	4932      	ldr	r1, [pc, #200]	@ (80038dc <_printf_i+0x214>)
 8003812:	9104      	str	r1, [sp, #16]
 8003814:	0021      	movs	r1, r4
 8003816:	3145      	adds	r1, #69	@ 0x45
 8003818:	700a      	strb	r2, [r1, #0]
 800381a:	6819      	ldr	r1, [r3, #0]
 800381c:	6822      	ldr	r2, [r4, #0]
 800381e:	c940      	ldmia	r1!, {r6}
 8003820:	0610      	lsls	r0, r2, #24
 8003822:	d402      	bmi.n	800382a <_printf_i+0x162>
 8003824:	0650      	lsls	r0, r2, #25
 8003826:	d500      	bpl.n	800382a <_printf_i+0x162>
 8003828:	b2b6      	uxth	r6, r6
 800382a:	6019      	str	r1, [r3, #0]
 800382c:	07d3      	lsls	r3, r2, #31
 800382e:	d502      	bpl.n	8003836 <_printf_i+0x16e>
 8003830:	2320      	movs	r3, #32
 8003832:	4313      	orrs	r3, r2
 8003834:	6023      	str	r3, [r4, #0]
 8003836:	2e00      	cmp	r6, #0
 8003838:	d001      	beq.n	800383e <_printf_i+0x176>
 800383a:	2710      	movs	r7, #16
 800383c:	e7aa      	b.n	8003794 <_printf_i+0xcc>
 800383e:	2220      	movs	r2, #32
 8003840:	6823      	ldr	r3, [r4, #0]
 8003842:	4393      	bics	r3, r2
 8003844:	6023      	str	r3, [r4, #0]
 8003846:	e7f8      	b.n	800383a <_printf_i+0x172>
 8003848:	681a      	ldr	r2, [r3, #0]
 800384a:	680d      	ldr	r5, [r1, #0]
 800384c:	1d10      	adds	r0, r2, #4
 800384e:	6949      	ldr	r1, [r1, #20]
 8003850:	6018      	str	r0, [r3, #0]
 8003852:	6813      	ldr	r3, [r2, #0]
 8003854:	062e      	lsls	r6, r5, #24
 8003856:	d501      	bpl.n	800385c <_printf_i+0x194>
 8003858:	6019      	str	r1, [r3, #0]
 800385a:	e002      	b.n	8003862 <_printf_i+0x19a>
 800385c:	066d      	lsls	r5, r5, #25
 800385e:	d5fb      	bpl.n	8003858 <_printf_i+0x190>
 8003860:	8019      	strh	r1, [r3, #0]
 8003862:	2300      	movs	r3, #0
 8003864:	9d03      	ldr	r5, [sp, #12]
 8003866:	6123      	str	r3, [r4, #16]
 8003868:	e7bf      	b.n	80037ea <_printf_i+0x122>
 800386a:	681a      	ldr	r2, [r3, #0]
 800386c:	1d11      	adds	r1, r2, #4
 800386e:	6019      	str	r1, [r3, #0]
 8003870:	6815      	ldr	r5, [r2, #0]
 8003872:	2100      	movs	r1, #0
 8003874:	0028      	movs	r0, r5
 8003876:	6862      	ldr	r2, [r4, #4]
 8003878:	f000 f856 	bl	8003928 <memchr>
 800387c:	2800      	cmp	r0, #0
 800387e:	d001      	beq.n	8003884 <_printf_i+0x1bc>
 8003880:	1b40      	subs	r0, r0, r5
 8003882:	6060      	str	r0, [r4, #4]
 8003884:	6863      	ldr	r3, [r4, #4]
 8003886:	6123      	str	r3, [r4, #16]
 8003888:	2300      	movs	r3, #0
 800388a:	9a03      	ldr	r2, [sp, #12]
 800388c:	7013      	strb	r3, [r2, #0]
 800388e:	e7ac      	b.n	80037ea <_printf_i+0x122>
 8003890:	002a      	movs	r2, r5
 8003892:	6923      	ldr	r3, [r4, #16]
 8003894:	9906      	ldr	r1, [sp, #24]
 8003896:	9805      	ldr	r0, [sp, #20]
 8003898:	9d07      	ldr	r5, [sp, #28]
 800389a:	47a8      	blx	r5
 800389c:	3001      	adds	r0, #1
 800389e:	d0ae      	beq.n	80037fe <_printf_i+0x136>
 80038a0:	6823      	ldr	r3, [r4, #0]
 80038a2:	079b      	lsls	r3, r3, #30
 80038a4:	d415      	bmi.n	80038d2 <_printf_i+0x20a>
 80038a6:	9b09      	ldr	r3, [sp, #36]	@ 0x24
 80038a8:	68e0      	ldr	r0, [r4, #12]
 80038aa:	4298      	cmp	r0, r3
 80038ac:	daa9      	bge.n	8003802 <_printf_i+0x13a>
 80038ae:	0018      	movs	r0, r3
 80038b0:	e7a7      	b.n	8003802 <_printf_i+0x13a>
 80038b2:	0022      	movs	r2, r4
 80038b4:	2301      	movs	r3, #1
 80038b6:	9906      	ldr	r1, [sp, #24]
 80038b8:	9805      	ldr	r0, [sp, #20]
 80038ba:	9e07      	ldr	r6, [sp, #28]
 80038bc:	3219      	adds	r2, #25
 80038be:	47b0      	blx	r6
 80038c0:	3001      	adds	r0, #1
 80038c2:	d09c      	beq.n	80037fe <_printf_i+0x136>
 80038c4:	3501      	adds	r5, #1
 80038c6:	68e3      	ldr	r3, [r4, #12]
 80038c8:	9a09      	ldr	r2, [sp, #36]	@ 0x24
 80038ca:	1a9b      	subs	r3, r3, r2
 80038cc:	42ab      	cmp	r3, r5
 80038ce:	dcf0      	bgt.n	80038b2 <_printf_i+0x1ea>
 80038d0:	e7e9      	b.n	80038a6 <_printf_i+0x1de>
 80038d2:	2500      	movs	r5, #0
 80038d4:	e7f7      	b.n	80038c6 <_printf_i+0x1fe>
 80038d6:	46c0      	nop			@ (mov r8, r8)
 80038d8:	08003a14 	.word	0x08003a14
 80038dc:	08003a25 	.word	0x08003a25

080038e0 <memmove>:
 80038e0:	b510      	push	{r4, lr}
 80038e2:	4288      	cmp	r0, r1
 80038e4:	d902      	bls.n	80038ec <memmove+0xc>
 80038e6:	188b      	adds	r3, r1, r2
 80038e8:	4298      	cmp	r0, r3
 80038ea:	d308      	bcc.n	80038fe <memmove+0x1e>
 80038ec:	2300      	movs	r3, #0
 80038ee:	429a      	cmp	r2, r3
 80038f0:	d007      	beq.n	8003902 <memmove+0x22>
 80038f2:	5ccc      	ldrb	r4, [r1, r3]
 80038f4:	54c4      	strb	r4, [r0, r3]
 80038f6:	3301      	adds	r3, #1
 80038f8:	e7f9      	b.n	80038ee <memmove+0xe>
 80038fa:	5c8b      	ldrb	r3, [r1, r2]
 80038fc:	5483      	strb	r3, [r0, r2]
 80038fe:	3a01      	subs	r2, #1
 8003900:	d2fb      	bcs.n	80038fa <memmove+0x1a>
 8003902:	bd10      	pop	{r4, pc}

08003904 <_sbrk_r>:
 8003904:	2300      	movs	r3, #0
 8003906:	b570      	push	{r4, r5, r6, lr}
 8003908:	4d06      	ldr	r5, [pc, #24]	@ (8003924 <_sbrk_r+0x20>)
 800390a:	0004      	movs	r4, r0
 800390c:	0008      	movs	r0, r1
 800390e:	602b      	str	r3, [r5, #0]
 8003910:	f7fd fa7c 	bl	8000e0c <_sbrk>
 8003914:	1c43      	adds	r3, r0, #1
 8003916:	d103      	bne.n	8003920 <_sbrk_r+0x1c>
 8003918:	682b      	ldr	r3, [r5, #0]
 800391a:	2b00      	cmp	r3, #0
 800391c:	d000      	beq.n	8003920 <_sbrk_r+0x1c>
 800391e:	6023      	str	r3, [r4, #0]
 8003920:	bd70      	pop	{r4, r5, r6, pc}
 8003922:	46c0      	nop			@ (mov r8, r8)
 8003924:	2000086c 	.word	0x2000086c

08003928 <memchr>:
 8003928:	b2c9      	uxtb	r1, r1
 800392a:	1882      	adds	r2, r0, r2
 800392c:	4290      	cmp	r0, r2
 800392e:	d101      	bne.n	8003934 <memchr+0xc>
 8003930:	2000      	movs	r0, #0
 8003932:	4770      	bx	lr
 8003934:	7803      	ldrb	r3, [r0, #0]
 8003936:	428b      	cmp	r3, r1
 8003938:	d0fb      	beq.n	8003932 <memchr+0xa>
 800393a:	3001      	adds	r0, #1
 800393c:	e7f6      	b.n	800392c <memchr+0x4>

0800393e <_realloc_r>:
 800393e:	b5f7      	push	{r0, r1, r2, r4, r5, r6, r7, lr}
 8003940:	0006      	movs	r6, r0
 8003942:	000c      	movs	r4, r1
 8003944:	0015      	movs	r5, r2
 8003946:	2900      	cmp	r1, #0
 8003948:	d105      	bne.n	8003956 <_realloc_r+0x18>
 800394a:	0011      	movs	r1, r2
 800394c:	f7ff fc5e 	bl	800320c <_malloc_r>
 8003950:	0004      	movs	r4, r0
 8003952:	0020      	movs	r0, r4
 8003954:	bdfe      	pop	{r1, r2, r3, r4, r5, r6, r7, pc}
 8003956:	2a00      	cmp	r2, #0
 8003958:	d103      	bne.n	8003962 <_realloc_r+0x24>
 800395a:	f7ff fbeb 	bl	8003134 <_free_r>
 800395e:	002c      	movs	r4, r5
 8003960:	e7f7      	b.n	8003952 <_realloc_r+0x14>
 8003962:	f000 f81c 	bl	800399e <_malloc_usable_size_r>
 8003966:	0007      	movs	r7, r0
 8003968:	4285      	cmp	r5, r0
 800396a:	d802      	bhi.n	8003972 <_realloc_r+0x34>
 800396c:	0843      	lsrs	r3, r0, #1
 800396e:	42ab      	cmp	r3, r5
 8003970:	d3ef      	bcc.n	8003952 <_realloc_r+0x14>
 8003972:	0029      	movs	r1, r5
 8003974:	0030      	movs	r0, r6
 8003976:	f7ff fc49 	bl	800320c <_malloc_r>
 800397a:	9001      	str	r0, [sp, #4]
 800397c:	2800      	cmp	r0, #0
 800397e:	d101      	bne.n	8003984 <_realloc_r+0x46>
 8003980:	9c01      	ldr	r4, [sp, #4]
 8003982:	e7e6      	b.n	8003952 <_realloc_r+0x14>
 8003984:	002a      	movs	r2, r5
 8003986:	42bd      	cmp	r5, r7
 8003988:	d900      	bls.n	800398c <_realloc_r+0x4e>
 800398a:	003a      	movs	r2, r7
 800398c:	0021      	movs	r1, r4
 800398e:	9801      	ldr	r0, [sp, #4]
 8003990:	f7ff fbc6 	bl	8003120 <memcpy>
 8003994:	0021      	movs	r1, r4
 8003996:	0030      	movs	r0, r6
 8003998:	f7ff fbcc 	bl	8003134 <_free_r>
 800399c:	e7f0      	b.n	8003980 <_realloc_r+0x42>

0800399e <_malloc_usable_size_r>:
 800399e:	1f0b      	subs	r3, r1, #4
 80039a0:	681b      	ldr	r3, [r3, #0]
 80039a2:	1f18      	subs	r0, r3, #4
 80039a4:	2b00      	cmp	r3, #0
 80039a6:	da01      	bge.n	80039ac <_malloc_usable_size_r+0xe>
 80039a8:	580b      	ldr	r3, [r1, r0]
 80039aa:	18c0      	adds	r0, r0, r3
 80039ac:	4770      	bx	lr
	...

080039b0 <_init>:
 80039b0:	b5f8      	push	{r3, r4, r5, r6, r7, lr}
 80039b2:	46c0      	nop			@ (mov r8, r8)
 80039b4:	bcf8      	pop	{r3, r4, r5, r6, r7}
 80039b6:	bc08      	pop	{r3}
 80039b8:	469e      	mov	lr, r3
 80039ba:	4770      	bx	lr

080039bc <_fini>:
 80039bc:	b5f8      	push	{r3, r4, r5, r6, r7, lr}
 80039be:	46c0      	nop			@ (mov r8, r8)
 80039c0:	bcf8      	pop	{r3, r4, r5, r6, r7}
 80039c2:	bc08      	pop	{r3}
 80039c4:	469e      	mov	lr, r3
 80039c6:	4770      	bx	lr

080039c8 <__FLASH_Program_Fast_veneer>:
 80039c8:	b401      	push	{r0}
 80039ca:	4802      	ldr	r0, [pc, #8]	@ (80039d4 <__FLASH_Program_Fast_veneer+0xc>)
 80039cc:	4684      	mov	ip, r0
 80039ce:	bc01      	pop	{r0}
 80039d0:	4760      	bx	ip
 80039d2:	bf00      	nop
 80039d4:	20000061 	.word	0x20000061

Disassembly of section .data:

20000000 <beeper>:
20000000:	00002a30                                0*..

20000004 <SystemCoreClock>:
20000004:	00b71b00                                ....

20000008 <uwTickFreq>:
20000008:	00000001                                ....

2000000c <uwTickPrio>:
2000000c:	00000004                                ....

20000010 <_impure_ptr>:
20000010:	20000014                                ... 

20000014 <_impure_data>:
20000014:	00000000 20000734 2000079c 20000804     ....4.. ... ... 
	...

20000060 <FLASH_Program_Fast>:
  uint32_t dest = Address;
  uint32_t src = DataAddress;
  uint32_t primask_bit;

  /* Set FSTPG bit */
  SET_BIT(FLASH->CR, FLASH_CR_FSTPG);
20000060:	2280      	movs	r2, #128	@ 0x80
20000062:	4b0c      	ldr	r3, [pc, #48]	@ (20000094 <FLASH_Program_Fast+0x34>)
{
20000064:	b530      	push	{r4, r5, lr}
  SET_BIT(FLASH->CR, FLASH_CR_FSTPG);
20000066:	695c      	ldr	r4, [r3, #20]
20000068:	02d2      	lsls	r2, r2, #11
2000006a:	4322      	orrs	r2, r4
2000006c:	615a      	str	r2, [r3, #20]
 */
__STATIC_FORCEINLINE uint32_t __get_PRIMASK(void)
{
  uint32_t result;

  __ASM volatile ("MRS %0, primask" : "=r" (result) );
2000006e:	f3ef 8210 	mrs	r2, PRIMASK
  __ASM volatile ("cpsid i" : : : "memory");
20000072:	b672      	cpsid	i
  /* Enter critical section: row programming should not be longer than 7 ms */
  primask_bit = __get_PRIMASK();
  __disable_irq();

  /* Fast Program : 64 words */
  while (index < 64U)
20000074:	1c4c      	adds	r4, r1, #1
20000076:	34ff      	adds	r4, #255	@ 0xff
  {
    *(uint32_t *)dest = *(uint32_t *)src;
20000078:	1a40      	subs	r0, r0, r1
2000007a:	680d      	ldr	r5, [r1, #0]
2000007c:	5045      	str	r5, [r0, r1]
    src += 4U;
2000007e:	3104      	adds	r1, #4
  while (index < 64U)
20000080:	42a1      	cmp	r1, r4
20000082:	d1fa      	bne.n	2000007a <FLASH_Program_Fast+0x1a>
  }

  /* wait for BSY1 in order to be sure that flash operation is ended befoire
     allowing prefetch in flash. Timeout does not return status, as it will
     be anyway done later */
  while ((FLASH->SR & FLASH_SR_BSY1) != 0x00U)
20000084:	2180      	movs	r1, #128	@ 0x80
20000086:	0249      	lsls	r1, r1, #9
20000088:	6918      	ldr	r0, [r3, #16]
2000008a:	4208      	tst	r0, r1
2000008c:	d1fc      	bne.n	20000088 <FLASH_Program_Fast+0x28>
  \details Assigns the given value to the Priority Mask Register.
  \param [in]    priMask  Priority Mask
 */
__STATIC_FORCEINLINE void __set_PRIMASK(uint32_t priMask)
{
  __ASM volatile ("MSR primask, %0" : : "r" (priMask) : "memory");
2000008e:	f382 8810 	msr	PRIMASK, r2
  {
  }

  /* Exit critical section: restore previous priority mask */
  __set_PRIMASK(primask_bit);
}
20000092:	bd30      	pop	{r4, r5, pc}
20000094:	40022000 	.word	0x40022000
